(dp0
S'GPR    '
p1
(dp2
S'successes'
p3
(lp4
I00
aI00
aI01
aI01
aI01
aI01
aI01
aI00
aI01
aI00
aI01
aI01
aI01
aI00
aI01
aI00
aI01
aI01
aI01
aI01
aI01
aI01
aI01
aI01
aI01
aI01
aI00
aI01
aI01
aI01
aI01
aI01
aI01
aI01
aI01
aI01
aI00
aI01
aI01
aI01
aI01
aI01
aI01
aI01
aI01
aI01
aI01
aI01
aI01
aI01
aI01
aI01
aI01
aI01
aI01
aI01
aI01
aI01
aI01
aI01
aI01
aI01
aI00
aI01
aI01
aI01
aI01
aI01
aI01
aI01
aI01
aI01
aI01
aI01
aI01
aI01
aI01
aI01
aI01
aI01
aI00
aI00
aI01
aI01
aI01
aI01
aI01
aI01
aI01
aI01
aI01
aI01
aI01
aI01
aI01
aI00
aI01
aI01
aI01
aI01
asS'comp_times'
p5
(lp6
F1.2099919319152832
aF0.9645678997039795
aF1.6636672019958496
aF0.5225279331207275
aF0.35208606719970703
aF0.6981408596038818
aF1.3666949272155762
aF1.3327960968017578
aF0.8461289405822754
aF1.0271589756011963
aF0.5140299797058105
aF0.6949350833892822
aF0.7528469562530518
aF2.5654900074005127
aF1.6772890090942383
aF1.189291000366211
aF0.4530160427093506
aF0.39362502098083496
aF0.9144158363342285
aF0.5601880550384521
aF0.44043993949890137
aF1.0267279148101807
aF0.4603579044342041
aF0.3873169422149658
aF0.8803179264068604
aF0.8915739059448242
aF0.7502081394195557
aF0.5884850025177002
aF0.6662030220031738
aF0.2733879089355469
aF1.6809799671173096
aF0.51033616065979
aF0.6038777828216553
aF0.9256610870361328
aF0.46558094024658203
aF1.2066168785095215
aF0.8393580913543701
aF1.1057159900665283
aF1.815438985824585
aF1.0616581439971924
aF0.8261029720306396
aF0.8153049945831299
aF0.8978569507598877
aF1.6989479064941406
aF0.5769801139831543
aF1.2323389053344727
aF0.7643039226531982
aF0.923192024230957
aF0.7959380149841309
aF0.265582799911499
aF0.4755687713623047
aF0.6874969005584717
aF1.367588996887207
aF0.5852601528167725
aF0.42377614974975586
aF1.6009881496429443
aF0.8987889289855957
aF0.37323594093322754
aF0.8138198852539062
aF0.9671769142150879
aF1.3344368934631348
aF0.29833102226257324
aF0.8662428855895996
aF0.6174650192260742
aF0.5192389488220215
aF0.5115320682525635
aF0.7191939353942871
aF0.5374529361724854
aF0.4867820739746094
aF0.9156219959259033
aF1.4051258563995361
aF2.084429979324341
aF1.2463481426239014
aF1.043626070022583
aF0.7106950283050537
aF2.339962959289551
aF0.5107548236846924
aF1.0380580425262451
aF0.9812390804290771
aF1.1738708019256592
aF2.1540639400482178
aF1.993826150894165
aF1.8710699081420898
aF0.7406439781188965
aF0.9724020957946777
aF0.4459829330444336
aF1.1373238563537598
aF0.7882299423217773
aF2.0393381118774414
aF0.6788959503173828
aF0.7990708351135254
aF0.6853342056274414
aF2.468502998352051
aF1.529444932937622
aF1.7461280822753906
aF0.8150160312652588
aF0.36244797706604004
aF0.6376750469207764
aF1.375730037689209
aF1.060135841369629
asS'costs'
p7
(lp8
F0.9002514045341939
aF2.0077593159577587
aF2.1580831319621994
aF0.7999091953048895
aF0.25498658065111296
aF1.3802935850839961
aF0.24593510416400552
aF1.646307815249668
aF2.4929700000080337
aF2.0835597116690003
aF1.1875512973991094
aF1.124279180997183
aF2.007338186109471
aF2.5213216349562333
aF0.3872685009690672
aF2.0192945914292975
aF0.1395140599248755
aF1.264930407294221
aF1.654732414144258
aF1.8046843430090354
aF0.18139997401403363
aF0.7236270039336629
aF1.3036848747185537
aF1.3677586625255085
aF0.722348561948074
aF3.479705962912505
aF1.9410038281778397
aF2.0948633923859448
aF1.509988629707006
aF0.16457160298215387
aF1.1583788015451217
aF0.9092986352048085
aF1.5455796532053196
aF0.38695035198422467
aF0.16720624087556418
aF2.1322924109062407
aF2.541028020874942
aF2.199399007858205
aF0.4731523386503927
aF1.6782405616154792
aF1.1730055993053399
aF2.2872685984324974
aF1.1211033342945578
aF1.4979860290081926
aF0.3233356846289643
aF0.3753551651356671
aF0.9946687116522699
aF0.32316144502714556
aF2.436615880133078
aF1.7662692626898906
aF1.117282294423542
aF2.0944594349121006
aF1.944420306500347
aF1.34784948921615
aF1.0028045450427916
aF0.8668590469261965
aF1.0455503200808753
aF2.5852543245660837
aF2.027193750133011
aF1.865213165736969
aF0.4629639172578989
aF0.036459981423045254
aF1.3407043960578082
aF1.3281555469420345
aF1.3844959529373824
aF1.2303551654239466
aF1.2837078009059861
aF1.5164862823658742
aF0.20653323129329534
aF0.4494071017214858
aF0.20936682662849598
aF3.0745131238000463
aF0.4364970929651723
aF1.308501639222601
aF1.384688205285372
aF1.9703925402754061
aF1.66642824477394
aF0.7018384076828512
aF0.636313661530159
aF0.31499472702362585
aF1.6516726250565845
aF3.478842530712582
aF0.3572663803558921
aF1.8311764161852493
aF0.3278187431535774
aF1.0191248338364463
aF1.2023483774898
aF1.053030281528747
aF2.2170908797321167
aF1.073998449682641
aF2.100325932927105
aF1.4195935797391395
aF1.742105120935291
aF1.212230031119511
aF0.5970240506334656
aF1.6566318953401755
aF0.2058237331854784
aF1.430525605670444
aF0.11962655466278958
aF1.008994208623844
asS'func_evals'
p9
(lp10
sS'qp_solves'
p11
(lp12
ssS'NN      '
p13
(dp14
g3
(lp15
I00
aI00
aI00
aI01
aI01
aI01
aI01
aI01
aI01
aI01
aI01
aI00
aI01
aI00
aI00
aI01
aI01
aI01
aI01
aI01
aI01
aI01
aI00
aI01
aI01
aI00
aI00
aI01
aI01
aI01
aI01
aI01
aI01
aI01
aI01
aI00
aI00
aI01
aI01
aI01
aI01
aI01
aI00
aI00
aI01
aI00
aI01
aI01
aI01
aI01
aI01
aI01
aI00
aI01
aI00
aI01
aI01
aI01
aI01
aI01
aI01
aI01
aI01
aI01
aI01
aI01
aI01
aI01
aI00
aI01
aI01
aI00
aI01
aI00
aI01
aI01
aI01
aI00
aI01
aI01
aI01
aI01
aI01
aI01
aI00
aI01
aI01
aI01
aI01
aI00
aI01
aI00
aI01
aI00
aI00
aI00
aI01
aI01
aI01
aI01
asg5
(lp16
F1.3734948635101318
aF0.4583921432495117
aF0.24204301834106445
aF0.5946509838104248
aF0.45346999168395996
aF0.5805308818817139
aF0.7280540466308594
aF0.6950180530548096
aF1.0811970233917236
aF1.833683967590332
aF1.3055229187011719
aF2.9327800273895264
aF1.4893319606781006
aF1.299220085144043
aF0.9262561798095703
aF0.810020923614502
aF0.48137688636779785
aF0.812169075012207
aF0.6446218490600586
aF0.741422176361084
aF1.9985949993133545
aF1.0763299465179443
aF0.6384360790252686
aF0.32475900650024414
aF0.9447669982910156
aF2.423521041870117
aF0.8029589653015137
aF0.6760220527648926
aF0.6560001373291016
aF0.6366949081420898
aF1.3204190731048584
aF0.7344269752502441
aF0.6694638729095459
aF0.7839529514312744
aF0.5896070003509521
aF3.278623104095459
aF1.2728829383850098
aF0.6986660957336426
aF2.088505983352661
aF0.23679399490356445
aF2.6459670066833496
aF1.6330950260162354
aF1.1211738586425781
aF1.0247600078582764
aF1.5903890132904053
aF1.6033649444580078
aF0.8265190124511719
aF0.8732731342315674
aF1.0789499282836914
aF0.2685260772705078
aF1.407693862915039
aF0.6096367835998535
aF1.1396939754486084
aF1.4386990070343018
aF0.7131838798522949
aF0.48205995559692383
aF0.5740008354187012
aF0.8751678466796875
aF1.1903440952301025
aF0.8029460906982422
aF1.1175870895385742
aF1.9847609996795654
aF0.6552770137786865
aF0.8732700347900391
aF0.7665529251098633
aF0.4102189540863037
aF1.0351269245147705
aF0.4910287857055664
aF0.9730792045593262
aF0.7155959606170654
aF2.1100361347198486
aF2.255110025405884
aF0.9420509338378906
aF1.6571002006530762
aF1.2500629425048828
aF1.4076790809631348
aF0.5635120868682861
aF0.5875658988952637
aF0.8209800720214844
aF1.830461025238037
aF1.7106389999389648
aF3.238821029663086
aF0.8662447929382324
aF0.7492151260375977
aF0.43381595611572266
aF0.9775099754333496
aF1.40724515914917
aF0.8952178955078125
aF2.183995008468628
aF0.87972092628479
aF1.3526980876922607
aF2.6043150424957275
aF3.903979778289795
aF2.26926589012146
aF1.2465271949768066
aF1.1402010917663574
aF1.7288899421691895
aF1.1854100227355957
aF3.506587028503418
aF2.292328119277954
asg7
(lp17
F4.213729853325293
aF1.9469713393455743
aF8.759886387069194
aF0.6053211931202435
aF3.4306783893498647
aF1.3776113196862216
aF0.4535228559098555
aF1.7017041724909336
aF3.12261756800255
aF2.511871108508264
aF1.3378972933229085
aF2.4397937057475856
aF2.0104955212872127
aF3.776120271244386
aF2.452613695310567
aF2.1575075432826663
aF0.1323303634569525
aF1.2355452025891418
aF1.6758812972136017
aF1.8026263652825667
aF0.5082396700942824
aF0.7123069144017178
aF1.7455427588377566
aF1.3623748440192436
aF0.7167334764454355
aF7.6063042147058475
aF2.7998937718955257
aF2.150925915536699
aF1.3656293464911033
aF0.164648494534262
aF1.9972821962616447
aF1.4007668987795097
aF1.9814579136476873
aF0.8560346728389465
aF0.19474253014051604
aF2.925959347998858
aF4.114672862849018
aF2.0132777816493057
aF0.5426309318750662
aF4.769679025740044
aF1.1642518504567307
aF2.2788837707451677
aF1.7040315923532015
aF5.64277989863701
aF0.7815644743494362
aF1.0435170895054136
aF0.9958871021823834
aF0.4157185361674257
aF2.4778695537446365
aF4.522780455456651
aF1.0694694799730158
aF2.0342642868460104
aF1.8857158391812416
aF1.342036900234284
aF1.5422505562006998
aF3.3332151640392533
aF1.0430955828293393
aF2.566623085505046
aF2.234843388467828
aF1.8395275669627438
aF0.4563912796857715
aF0.03609862962190407
aF1.2143051349696552
aF1.4747177853201883
aF2.637954475479481
aF2.594800602977502
aF1.4723148358155023
aF2.3403908536899585
aF2.401224855212109
aF0.7319571629760125
aF0.2948763251668206
aF2.8899120652847756
aF0.45549082747638076
aF2.358489855011843
aF1.3971706413233846
aF2.0816153524109198
aF2.992025982231579
aF1.8267688981412178
aF0.6337094845871575
aF1.0710866601361002
aF1.4530607441503935
aF2.3600888627407413
aF0.37123681098349814
aF1.7866959643535973
aF0.8391743472817019
aF1.0068781811908345
aF1.4976427738711753
aF1.1719036917329981
aF2.545123840469857
aF5.208073850403365
aF2.0709560778153957
aF2.460988650217342
aF3.5838298823744204
aF2.555469398679344
aF2.133783394275859
aF3.3109142217354592
aF0.20583005755532346
aF1.4297923345381003
aF0.11533754065237199
aF1.1435374352841805
asg9
(lp18
sg11
(lp19
ssS'waypoints'
p20
(dp21
g3
(lp22
I00
aI01
aI01
aI01
aI01
aI01
aI01
aI01
aI01
aI01
aI01
aI01
aI01
aI01
aI01
aI01
aI01
aI01
aI01
aI01
aI01
aI01
aI01
aI01
aI01
aI01
aI01
aI01
aI01
aI01
aI01
aI01
aI01
aI01
aI01
aI01
aI01
aI01
aI01
aI01
aI01
aI01
aI01
aI01
aI01
aI01
aI01
aI01
aI01
aI01
aI01
aI01
aI00
aI01
aI01
aI01
aI01
aI01
aI00
aI01
aI01
aI01
aI01
aI01
aI01
aI01
aI01
aI01
aI01
aI01
aI01
aI01
aI01
aI01
aI01
aI01
aI01
aI01
aI01
aI01
aI00
aI01
aI01
aI01
aI01
aI01
aI01
aI01
aI01
aI01
aI01
aI01
aI01
aI01
aI00
aI00
aI01
aI01
aI01
aI01
asg5
(lp23
F2.4300589561462402
aF1.7252700328826904
aF2.2346091270446777
aF0.8444139957427979
aF1.325343132019043
aF1.3348100185394287
aF1.5237500667572021
aF1.8328649997711182
aF1.5258569717407227
aF2.024616003036499
aF1.625265121459961
aF0.8253850936889648
aF1.3257200717926025
aF2.6333298683166504
aF1.9308249950408936
aF3.5287439823150635
aF1.1248548030853271
aF1.5297141075134277
aF1.62882399559021
aF1.5317330360412598
aF0.7238640785217285
aF1.8373651504516602
aF0.6254630088806152
aF0.8270149230957031
aF1.13270902633667
aF1.9327130317687988
aF1.0263359546661377
aF1.0277678966522217
aF2.02983021736145
aF0.6234328746795654
aF2.0332229137420654
aF1.3328089714050293
aF0.8256938457489014
aF1.6279270648956299
aF1.6332979202270508
aF1.3322079181671143
aF3.336277961730957
aF2.032588005065918
aF1.8280830383300781
aF2.4321060180664062
aF0.7302918434143066
aF0.8340940475463867
aF2.3342390060424805
aF3.0409739017486572
aF0.9360220432281494
aF1.944350004196167
aF1.5297720432281494
aF2.135768175125122
aF1.7296299934387207
aF0.5308310985565186
aF1.2290470600128174
aF1.2375571727752686
aF3.2383248805999756
aF0.6252410411834717
aF1.0348351001739502
aF1.837435007095337
aF1.635063886642456
aF1.2262091636657715
aF3.2370078563690186
aF1.7327098846435547
aF1.8310627937316895
aF0.7263648509979248
aF1.3375699520111084
aF0.8275489807128906
aF0.9332540035247803
aF1.8285269737243652
aF2.7300779819488525
aF1.3342959880828857
aF0.6273760795593262
aF1.4436020851135254
aF2.0300960540771484
aF2.8384571075439453
aF1.0287818908691406
aF2.541994094848633
aF0.8285379409790039
aF2.242187023162842
aF0.7280850410461426
aF1.6312990188598633
aF1.635925054550171
aF1.733367919921875
aF2.757580041885376
aF2.037631034851074
aF1.635180950164795
aF1.7369329929351807
aF1.64841890335083
aF1.4511890411376953
aF1.556161880493164
aF2.0304579734802246
aF2.2316031455993652
aF1.1298317909240723
aF1.5300400257110596
aF1.7297399044036865
aF2.637676954269409
aF1.2357800006866455
aF4.342602968215942
aF2.395220994949341
aF0.7376859188079834
aF1.331376075744629
aF2.6529109477996826
aF3.5334699153900146
asg7
(lp24
F6.707963656170396
aF3.6859293530676434
aF2.2392470994846962
aF0.6052680602120164
aF0.2549029399087788
aF1.391065623704607
aF0.21256585016962315
aF1.5960430066944378
aF2.5830445669277435
aF2.816555858282687
aF1.2010993746673593
aF1.1297866932725646
aF5.2873985592126065
aF3.4194635069956036
aF1.464476853067682
aF2.2004422063985194
aF0.14110123623195434
aF1.2375996314334101
aF1.891360821518114
aF1.8030639846277883
aF0.18139997394532573
aF0.7495969060998867
aF1.3030265949710087
aF1.3860176974230904
aF0.71271164625094
aF3.6101936282826754
aF1.8077351238942012
aF2.1068129336020234
aF1.8777907166312355
aF0.1645716029817875
aF4.319405584067579
aF0.9133963503244088
aF1.5717686811674274
aF0.541190717454422
aF0.16051297092878222
aF2.1187034459581837
aF2.607191350029387
aF2.1601569214742096
aF3.2861993481103866
aF2.0112356517757832
aF1.163161200120129
aF2.2772269886074863
aF1.3624325111204663
aF1.504948806295924
aF0.3114251511918411
aF2.5846089816833877
aF0.9980725668404238
aF0.34913492131236357
aF2.435913444202411
aF1.7663842268133596
aF1.0677546793040775
aF2.2210901620982475
aF13.173687608597804
aF1.3299744172849322
aF4.979649296554782
aF0.9973802180787781
aF1.0607894767092994
aF2.5796460263237493
aF6.462485735134939
aF1.8751393035357147
aF0.4581313741009161
aF0.03744134131515595
aF1.1377567558249055
aF1.290854244473255
aF1.3867063713789098
aF1.1727340207703627
aF1.2264471233900067
aF4.701964532051694
aF0.211372599693449
aF0.7741517514646294
aF0.42999444132331593
aF3.0715961601559174
aF0.4401424220307706
aF1.4793278846781284
aF1.3902952416023973
aF1.8635219032375052
aF1.6620426499741106
aF0.7228903204426115
aF0.6585341736718545
aF6.941568803120143
aF1.7818634996258993
aF4.458766841913098
aF3.6935148154342095
aF3.1826629848703822
aF0.2513955628112846
aF1.0118773551586964
aF1.2093842719063135
aF1.055638374464098
aF2.683757109689383
aF1.137907637985458
aF2.144917636582705
aF3.877238161837533
aF1.7021508844497168
aF1.2141686210792595
aF11.451970410078799
aF7.786419803847887
aF0.20582852987964545
aF1.4327374927730265
aF2.3398879937352626
aF1.408581971923288
asg9
(lp25
sg11
(lp26
ssS'ensemble'
p27
(dp28
g3
(lp29
I01
aI01
aI01
aI01
aI01
aI01
aI01
aI01
aI01
aI01
aI01
aI01
aI01
aI01
aI01
aI01
aI01
aI01
aI01
aI01
aI01
aI01
aI01
aI01
aI01
aI01
aI01
aI01
aI01
aI01
aI01
aI01
aI01
aI01
aI01
aI01
aI01
aI01
aI01
aI01
aI01
aI01
aI01
aI01
aI01
aI01
aI01
aI01
aI01
aI01
aI01
aI01
aI01
aI01
aI01
aI01
aI01
aI01
aI01
aI01
aI01
aI01
aI01
aI01
aI01
aI01
aI01
aI01
aI01
aI01
aI01
aI01
aI01
aI01
aI01
aI01
aI01
aI01
aI01
aI01
aI01
aI01
aI01
aI01
aI01
aI01
aI01
aI01
aI01
aI01
aI01
aI01
aI01
aI01
aI01
aI00
aI01
aI01
aI01
aI01
asg5
(lp30
F1.3251879215240479
aF1.2235782146453857
aF1.7238528728485107
aF0.5273511409759521
aF0.6282138824462891
aF1.132889986038208
aF0.9308350086212158
aF1.2254760265350342
aF1.0252649784088135
aF1.3315908908843994
aF1.0226678848266602
aF0.7238020896911621
aF1.123655080795288
aF2.237576961517334
aF1.330564022064209
aF1.3247950077056885
aF1.1433000564575195
aF1.0431959629058838
aF1.1320221424102783
aF0.9254741668701172
aF0.6420550346374512
aF1.135261058807373
aF0.5245637893676758
aF0.7337279319763184
aF0.8303589820861816
aF1.4324228763580322
aF1.1305639743804932
aF0.925900936126709
aF1.233691930770874
aF0.5382120609283447
aF1.3347949981689453
aF0.9241549968719482
aF0.7255148887634277
aF1.229321002960205
aF0.8250188827514648
aF0.8242318630218506
aF1.5342938899993896
aF1.2326760292053223
aF1.1268789768218994
aF0.8353478908538818
aF0.6255998611450195
aF0.8293530941009521
aF1.3455438613891602
aF1.3380110263824463
aF0.5241949558258057
aF1.332962989807129
aF0.8281729221343994
aF1.2482109069824219
aF1.1276168823242188
aF0.4249870777130127
aF0.831805944442749
aF1.135951042175293
aF1.731490135192871
aF0.6300680637359619
aF0.731499195098877
aF1.2485549449920654
aF1.1338109970092773
aF0.9362399578094482
aF1.3275701999664307
aF1.1279051303863525
aF1.6470980644226074
aF0.6306090354919434
aF1.2455379962921143
aF0.7322690486907959
aF0.524616003036499
aF0.7323238849639893
aF1.1462781429290771
aF0.839324951171875
aF0.6267800331115723
aF1.4396159648895264
aF1.6286578178405762
aF1.7294940948486328
aF0.929203987121582
aF1.1392829418182373
aF0.7368118762969971
aF1.2504301071166992
aF0.8324520587921143
aF1.3302068710327148
aF1.436683177947998
aF1.5391221046447754
aF1.531134843826294
aF1.5306320190429688
aF1.0348660945892334
aF1.3337149620056152
aF1.2399139404296875
aF1.0462689399719238
aF1.844231128692627
aF1.3400068283081055
aF2.141554117202759
aF0.837785005569458
aF0.8317668437957764
aF1.1377079486846924
aF1.5295112133026123
aF1.2339088916778564
aF1.731719970703125
aF1.8418622016906738
aF0.8451998233795166
aF0.9352061748504639
aF1.150339126586914
aF1.2394740581512451
asg7
(lp31
F1.054863265663519
aF1.9068048428016715
aF2.1830958001922367
aF0.6052272123702921
aF0.25629839858593084
aF1.3836739758086867
aF0.22264384184989605
aF1.7017041724909336
aF2.493100133084977
aF1.9281332250234255
aF1.1875512973991094
aF1.124584703729052
aF2.007338186109471
aF2.480232248452221
aF0.3897811509410391
aF2.1575075432826663
aF0.1349494215406865
aF1.264930407294221
aF1.6758812972136017
aF1.8005847414825773
aF0.18147300485653273
aF0.7387335434964855
aF1.303026310625883
aF1.3623748440192436
aF0.7240912371785818
aF3.5213098508623717
aF1.7589289627015925
aF2.140901205165787
aF1.509988629707006
aF0.16457160298176057
aF1.1518873666306437
aF0.9153654073379639
aF1.5208483366964023
aF0.47941314207174324
aF0.16720624087556418
aF2.1322924109062407
aF2.547228497690262
aF2.0132777816493057
aF0.7254146994969167
aF4.769679025740044
aF1.163174815253966
aF2.2826676328865405
aF1.2959004823332085
aF1.5339068189797802
aF0.31144797218661296
aF0.3753551651356671
aF0.9946687116522699
aF0.4157185361674257
aF2.4291263933909635
aF1.7663799533567144
aF1.117282294423542
aF2.164661389494987
aF1.9852316426553558
aF1.3452973822354088
aF1.0037668620215188
aF0.879446084740568
aF1.0430955828293393
aF2.585157103451758
aF2.027193750133011
aF1.8509640794385092
aF0.49577337012943745
aF0.03661544041907749
aF1.7564985659385524
aF1.3254439303883168
aF1.3899439840423304
aF1.2287255853200438
aF1.296109424608123
aF1.5164862823658742
aF0.21135581620586524
aF0.42544926649410586
aF0.2590016449715636
aF3.0745131238000463
aF0.44838667416998745
aF1.2967863366204775
aF1.3860264402094558
aF1.9703925402754061
aF1.66642824477394
aF0.7309037024911771
aF0.6337094845871575
aF0.28964795564310075
aF1.6104925738255913
aF2.58741469665521
aF0.4217970837040838
aF1.8311764161852493
aF0.6782687476663496
aF1.0351618932224487
aF1.2077364555578989
aF1.053030281528747
aF2.425651024738177
aF1.0667850727385644
aF2.170078186971894
aF1.4195935797728847
aF1.7330576995725373
aF1.3881681191327326
aF0.5375934924179375
aF3.3109142217354592
aF0.2058244638605438
aF1.4300310891191648
aF0.11962655466278958
aF0.9097382123509289
asg9
(lp32
sg11
(lp33
ssS'STD    '
p34
(dp35
g3
(lp36
I00
aI01
aI00
aI01
aI01
aI01
aI01
aI01
aI01
aI01
aI01
aI01
aI00
aI01
aI00
aI00
aI01
aI01
aI01
aI01
aI01
aI01
aI01
aI01
aI01
aI00
aI01
aI01
aI01
aI01
aI01
aI01
aI01
aI01
aI01
aI01
aI01
aI00
aI00
aI00
aI01
aI01
aI01
aI01
aI01
aI00
aI01
aI01
aI01
aI01
aI01
aI01
aI00
aI01
aI01
aI01
aI01
aI01
aI01
aI01
aI01
aI01
aI01
aI01
aI01
aI01
aI01
aI01
aI01
aI01
aI01
aI00
aI01
aI00
aI01
aI01
aI01
aI01
aI01
aI01
aI01
aI00
aI00
aI00
aI01
aI01
aI01
aI01
aI01
aI00
aI01
aI00
aI01
aI01
aI01
aI00
aI01
aI01
aI01
aI00
asg5
(lp37
F1.7428319454193115
aF1.2791659832000732
aF1.0623750686645508
aF0.1589210033416748
aF0.44381093978881836
aF0.45562291145324707
aF0.9234650135040283
aF1.0673911571502686
aF1.0935840606689453
aF0.8814709186553955
aF1.2307250499725342
aF0.3425099849700928
aF3.9570090770721436
aF1.2297461032867432
aF1.101351022720337
aF0.7757630348205566
aF0.5197701454162598
aF0.546748161315918
aF0.8085448741912842
aF0.9469578266143799
aF0.23450398445129395
aF0.7509119510650635
aF0.4010798931121826
aF0.5144319534301758
aF0.5009541511535645
aF1.6040160655975342
aF0.6136870384216309
aF0.5458829402923584
aF0.9301841259002686
aF0.1037590503692627
aF0.9742329120635986
aF0.5125219821929932
aF0.47591304779052734
aF1.5515458583831787
aF0.8942868709564209
aF0.8023779392242432
aF3.588621139526367
aF1.1600379943847656
aF2.754237174987793
aF1.0010650157928467
aF0.2889289855957031
aF0.35112595558166504
aF1.2511820793151855
aF1.554161787033081
aF0.472506046295166
aF4.891608953475952
aF0.936223030090332
aF0.6804230213165283
aF0.8549439907073975
aF0.15956616401672363
aF0.7473971843719482
aF0.7258880138397217
aF2.730240821838379
aF0.2988440990447998
aF0.7086858749389648
aF0.6483509540557861
aF1.9262199401855469
aF0.5370488166809082
aF1.2631239891052246
aF0.9004008769989014
aF1.4182031154632568
aF0.3210902214050293
aF0.5974390506744385
aF0.5360069274902344
aF0.4327268600463867
aF0.9879879951477051
aF1.259606122970581
aF0.5801219940185547
aF0.2776508331298828
aF1.1816060543060303
aF1.0007460117340088
aF0.7464799880981445
aF0.7230618000030518
aF1.0849170684814453
aF0.8326590061187744
aF0.8763267993927002
aF0.8361001014709473
aF0.7513659000396729
aF0.9765830039978027
aF1.5429410934448242
aF1.805595874786377
aF1.4373080730438232
aF0.811337947845459
aF1.1303348541259766
aF1.2272639274597168
aF0.9872558116912842
aF1.6571180820465088
aF1.107032060623169
aF1.7953681945800781
aF0.7826659679412842
aF0.7689700126647949
aF0.6153609752655029
aF1.0201611518859863
aF1.5971989631652832
aF1.4151239395141602
aF1.1897330284118652
aF1.2069458961486816
aF1.3659250736236572
aF0.6960208415985107
aF1.1804718971252441
asg7
(lp38
F1.0227093492271713
aF1.8957107580160282
aF3.191330065941267
aF0.6052272123702921
aF0.25629839858593084
aF1.3836739758086867
aF0.221863674224882
aF1.9121558585140754
aF2.534256684029904
aF1.648966973343205
aF1.2076520936962556
aF1.124584703729052
aF3.2375548402608145
aF2.242957340544539
aF0.38899482679165204
aF1.9453712345213592
aF0.15393535258564736
aF1.3076543365846944
aF1.9098414032065034
aF1.9435180247994084
aF0.1830075308206108
aF0.7709172527696702
aF1.303026310625883
aF1.3626676492310135
aF0.7164627062782364
aF4.576618354809741
aF1.7589289627015925
aF2.140901205165787
aF1.2300970187488092
aF0.16457160298176057
aF1.1961288247512818
aF0.9153654073379639
aF1.5522473886387782
aF0.48328054584474556
aF0.2094450087637094
aF2.112067545762389
aF2.5390698693085514
aF2.1653937375802332
aF0.5919934380288243
aF2.070752587701766
aF1.163174815253966
aF2.276801701313868
aF1.154691818812249
aF1.5269619400717926
aF0.31142774462961836
aF0.5093992148537706
aF1.0025423798409987
aF0.34089437138160783
aF2.4441358433094855
aF1.7663799533567144
aF1.0680909050796321
aF2.029968409333939
aF2.551491774574938
aF1.3295293173504323
aF1.0055811108300836
aF0.9012767383587026
aF1.0603653270558286
aF2.5795324101742407
aF2.0451677390441927
aF1.8686801953491858
aF0.4553897966325092
aF0.03745774797067863
aF1.129109091680799
aF1.2916398281184285
aF1.3854138806775278
aF1.144580754013011
aF1.6074132996573969
aF1.541711843652397
aF0.21135581620586524
aF0.40132195648673524
aF0.23532636935039136
aF2.994562383173049
aF0.42499048704044684
aF2.732546836597193
aF1.3863912619059893
aF1.8995235721933905
aF1.6727699499607547
aF0.7309037024911771
aF0.6553342723150833
aF0.2814786940798933
aF1.5833018347975467
aF3.6968052453642826
aF0.7043867366399086
aF2.054605945946068
aF0.3811445931570462
aF1.0065887171746928
aF1.2091181104430395
aF0.9910159537499805
aF2.6368490609425073
aF1.1451820349885025
aF2.0978410985907523
aF1.4013484323363181
aF1.6870058639563956
aF1.271871767681441
aF0.6500391533835678
aF1.8063810567567613
aF0.2058244638605438
aF1.4893668079638993
aF0.11530583861275474
aF1.0398142821450709
asg9
(lp39
sg11
(lp40
ssS'GPR_PCA'
p41
(dp42
g3
(lp43
I00
aI01
aI01
aI01
aI01
aI01
aI01
aI01
aI01
aI01
aI01
aI01
aI01
aI01
aI00
aI00
aI01
aI01
aI01
aI01
aI01
aI01
aI01
aI01
aI01
aI01
aI00
aI01
aI00
aI01
aI00
aI01
aI01
aI01
aI01
aI01
aI01
aI01
aI01
aI01
aI01
aI01
aI01
aI01
aI01
aI01
aI01
aI01
aI01
aI01
aI01
aI01
aI00
aI01
aI01
aI01
aI01
aI01
aI01
aI01
aI01
aI01
aI01
aI01
aI01
aI01
aI01
aI00
aI01
aI01
aI01
aI00
aI01
aI01
aI01
aI01
aI01
aI01
aI01
aI01
aI01
aI00
aI01
aI01
aI01
aI01
aI01
aI00
aI01
aI00
aI01
aI00
aI01
aI01
aI01
aI00
aI01
aI01
aI01
aI01
asg5
(lp44
F1.2724888324737549
aF1.5912461280822754
aF1.2540199756622314
aF0.7464611530303955
aF0.4261188507080078
aF0.6189281940460205
aF0.8938889503479004
aF1.5091478824615479
aF0.6890249252319336
aF1.6523339748382568
aF1.0670030117034912
aF0.6896140575408936
aF0.7838618755340576
aF1.6365928649902344
aF0.9368350505828857
aF1.6423790454864502
aF0.4245879650115967
aF0.5111880302429199
aF0.6892478466033936
aF0.5785088539123535
aF0.3093421459197998
aF0.8356568813323975
aF0.3349120616912842
aF0.4804551601409912
aF0.7916300296783447
aF1.031810998916626
aF0.7563278675079346
aF0.5810339450836182
aF1.7911489009857178
aF0.2822539806365967
aF0.6225180625915527
aF0.5755140781402588
aF0.49637579917907715
aF1.0057640075683594
aF0.9427399635314941
aF0.5177218914031982
aF0.8736109733581543
aF1.0283000469207764
aF1.3402538299560547
aF0.9028639793395996
aF0.8104100227355957
aF0.8285379409790039
aF1.0752720832824707
aF0.9604508876800537
aF0.42229294776916504
aF1.0825939178466797
aF0.6684699058532715
aF1.0808370113372803
aF0.9609370231628418
aF0.2698040008544922
aF0.6057159900665283
aF0.6581108570098877
aF1.5791881084442139
aF0.8592739105224609
aF0.5864949226379395
aF2.5004091262817383
aF0.8403439521789551
aF0.3638949394226074
aF0.9201200008392334
aF0.778101921081543
aF0.9511709213256836
aF0.30298495292663574
aF0.518592119216919
aF0.6176559925079346
aF0.4655940532684326
aF0.47112178802490234
aF0.5092580318450928
aF0.8164951801300049
aF0.44567108154296875
aF1.3362541198730469
aF4.180180072784424
aF1.5556631088256836
aF0.8813869953155518
aF1.011841058731079
aF0.47354698181152344
aF1.6253809928894043
aF0.5677599906921387
aF0.8641769886016846
aF1.2331469058990479
aF0.9117350578308105
aF0.955376148223877
aF1.537628173828125
aF1.03159499168396
aF1.1942799091339111
aF0.8509259223937988
aF0.5145528316497803
aF1.075037956237793
aF0.752507209777832
aF1.8057401180267334
aF0.8063662052154541
aF0.8615889549255371
aF0.6219871044158936
aF2.2739810943603516
aF1.7686569690704346
aF1.9292960166931152
aF1.2071759700775146
aF0.34864020347595215
aF0.5823829174041748
aF2.6703691482543945
aF0.8556380271911621
asg7
(lp45
F1.1940551556768784
aF1.9933895980888896
aF2.1830958001922367
aF0.6613563085764611
aF0.25961371242196046
aF1.375649716909853
aF0.22264384184989605
aF1.5201690350307147
aF2.493100133084977
aF1.776049578561695
aF1.219602401769433
aF1.1245492857640604
aF1.8847544432711227
aF2.480232248452221
aF0.48648445154342745
aF2.083135510276976
aF0.1349494215406865
aF1.2644232855268112
aF1.7229606800449977
aF1.8005847414825773
aF0.18147300485653273
aF0.7387335434964855
aF1.305864074833488
aF1.3681376200068285
aF0.7240912371785818
aF3.4789320932500205
aF2.0003276943854416
aF2.099159637973218
aF1.182302780364175
aF0.16457160298219026
aF1.3899897424931469
aF0.9066169485821745
aF1.5272965306321282
aF0.3963029806390454
aF0.1570255291973043
aF2.1203358729605672
aF2.547228497690262
aF2.3691938608123726
aF0.5656880840478221
aF1.7843753829030602
aF1.1704248893231246
aF2.2887189041818288
aF1.1181794769341398
aF1.6150111264941875
aF0.31144797218661296
aF0.37737837915480243
aF0.9948239692949734
aF0.19228036688921682
aF2.427207676404241
aF1.7662692768581953
aF1.093096087230429
aF2.0791542742715876
aF2.206921064559907
aF1.3496407704564297
aF1.000319231853433
aF0.8667109989104672
aF1.0457266032173038
aF2.585157103451758
aF2.0190311195762565
aF1.8547600590470394
aF0.49577337012943745
aF0.03661544041907749
aF1.7564985659385524
aF1.3254439303883168
aF1.3844321022453925
aF1.2404583397471929
aF1.296109424608123
aF1.510555817541913
aF0.2058954190773828
aF0.42544926649410586
aF0.24846452665519
aF3.194079562721356
aF0.44217954257477554
aF1.2967863366204775
aF1.3862984022326283
aF1.8949868932546912
aF1.6549754558807754
aF0.7184565587963416
aF0.6497034396905091
aF0.31173869198641796
aF1.6104925738255913
aF3.3967748309030337
aF0.4217970837040838
aF1.805142450500254
aF0.3367831881213962
aF1.01975181680096
aF1.225314446183023
aF1.0155131271716613
aF2.2984201954372776
aF1.3642029224618148
aF2.0977603700130856
aF1.539487448090338
aF1.7330576995725373
aF1.242517129614969
aF0.5375934924179375
aF1.6374698676589798
aF0.20582380075926474
aF1.4300310891191648
aF0.10881362929946008
aF0.9097382123509289
asg9
(lp46
sg11
(lp47
ssS'BGMR'
p48
(dp49
g3
(lp50
I01
aI01
aI01
aI01
aI01
aI01
aI01
aI01
aI01
aI01
aI01
aI01
aI01
aI00
aI01
aI00
aI01
aI01
aI01
aI01
aI01
aI01
aI01
aI01
aI01
aI01
aI00
aI01
aI00
aI01
aI01
aI01
aI01
aI01
aI01
aI01
aI01
aI01
aI01
aI01
aI01
aI01
aI01
aI01
aI01
aI01
aI01
aI00
aI01
aI01
aI01
aI01
aI01
aI01
aI01
aI01
aI01
aI01
aI01
aI01
aI01
aI01
aI00
aI01
aI01
aI01
aI01
aI00
aI01
aI01
aI01
aI00
aI01
aI01
aI01
aI01
aI01
aI01
aI01
aI01
aI01
aI00
aI01
aI01
aI01
aI01
aI01
aI00
aI01
aI01
aI01
aI00
aI01
aI01
aI01
aI00
aI01
aI01
aI01
aI00
asg5
(lp51
F0.9997680187225342
aF1.2713589668273926
aF1.8254539966583252
aF0.24010705947875977
aF0.37203502655029297
aF0.5685360431671143
aF1.139488935470581
aF0.8937520980834961
aF0.713904857635498
aF0.8991718292236328
aF1.0845069885253906
aF1.1283211708068848
aF1.222322940826416
aF2.2562990188598633
aF0.7985868453979492
aF1.0713329315185547
aF0.4546639919281006
aF0.4433732032775879
aF0.809654951095581
aF0.5717439651489258
aF0.3513059616088867
aF0.7826299667358398
aF0.2193148136138916
aF0.48586392402648926
aF0.7681119441986084
aF0.7949011325836182
aF0.9542849063873291
aF0.5203101634979248
aF2.0017409324645996
aF0.35988807678222656
aF0.8122739791870117
aF0.5157999992370605
aF0.28884005546569824
aF0.7750790119171143
aF1.1878900527954102
aF0.6007089614868164
aF0.9094090461730957
aF1.2317068576812744
aF1.2539989948272705
aF0.8173320293426514
aF0.8971068859100342
aF0.4857020378112793
aF0.6135151386260986
aF1.9362690448760986
aF0.4870340824127197
aF1.3310182094573975
aF0.450253963470459
aF0.6938951015472412
aF0.6091771125793457
aF0.21289992332458496
aF0.4118471145629883
aF0.8485538959503174
aF0.9564008712768555
aF0.37996912002563477
aF0.3567211627960205
aF1.344527006149292
aF0.6779890060424805
aF0.5524609088897705
aF0.9367327690124512
aF0.6119039058685303
aF1.1268939971923828
aF0.35550689697265625
aF0.7840731143951416
aF0.7101690769195557
aF0.23212790489196777
aF0.630255937576294
aF0.7221560478210449
aF0.501478910446167
aF0.5669810771942139
aF1.133471965789795
aF0.913032054901123
aF1.7487411499023438
aF0.9479818344116211
aF0.7163200378417969
aF0.3362538814544678
aF0.5179290771484375
aF0.4066660404205322
aF0.844228982925415
aF1.065030813217163
aF0.5730831623077393
aF0.9671010971069336
aF2.179805040359497
aF1.1446568965911865
aF1.3621301651000977
aF0.40881919860839844
aF0.3969709873199463
aF0.7157340049743652
aF0.6987099647521973
aF1.267745018005371
aF0.5734851360321045
aF0.5558221340179443
aF0.7273149490356445
aF1.3758809566497803
aF0.8120119571685791
aF1.4744961261749268
aF1.016124963760376
aF0.307919979095459
aF0.5941259860992432
aF1.5610549449920654
aF2.438786029815674
asg7
(lp52
F1.2185354144202782
aF1.9495480553252436
aF2.326372156436146
aF0.6805194893232432
aF0.26220819601285333
aF1.4040063256409665
aF0.27007357895960066
aF1.4213493164928548
aF2.532606888101216
aF1.9281332250234255
aF1.209519960069571
aF1.1256176354106637
aF1.8888570045447204
aF2.5028974026534145
aF0.3897811509410391
aF2.1552281181241257
aF0.13928557378943834
aF1.2495367770887362
aF1.724392894512562
aF1.8303381243059673
aF0.1813916056558446
aF0.7284543501002794
aF1.315421619990224
aF1.3645472857574203
aF0.7522956851078574
aF3.5213098508623717
aF2.3912996877630164
aF2.088795740789321
aF1.2254015816758288
aF0.16457160298176202
aF1.1518873666306437
aF0.9450556215434547
aF1.523855439679783
aF0.47941314207174324
aF0.1956392204476395
aF2.1094752825547785
aF2.597678086582971
aF2.389588697900924
aF0.6022812664923363
aF1.7345705460974845
aF1.204169565873924
aF2.2826676328865405
aF1.204349168075712
aF1.7531864902281913
aF0.36022110868164037
aF0.4272079405634998
aF1.0027518599361132
aF0.2166711587805311
aF2.4339787740455616
aF1.7675439296578486
aF1.14639591697368
aF2.12569641202091
aF1.9852316426553558
aF1.3353240628969323
aF1.0030722574171538
aF0.8662629417844792
aF1.074165633177039
aF2.585149666074844
aF2.068588050314
aF1.8509640794385092
aF0.45458187359581004
aF0.06915409014962974
aF1.6220652241108369
aF1.3500858084774778
aF1.3899439840423304
aF1.1632259640868838
aF1.2011510685689952
aF1.5266365339824444
aF0.21670344318231022
aF0.42954150827717796
aF0.2590016449715636
aF4.4212242582987615
aF0.4423265024301147
aF1.3216603027686717
aF1.3860264402094558
aF1.901275293190421
aF1.6796391822696128
aF0.7249767406808068
aF0.6830669317454152
aF0.28964795564310075
aF1.6024896097678998
aF2.7813253061715955
aF0.43115503750570666
aF1.8524655651301845
aF0.6782687476663496
aF1.019536163594473
aF1.2077364555578989
aF1.0191302216486011
aF2.425651024738177
aF1.0423421919784046
aF2.1124323216479253
aF1.7143864888926317
aF1.7105195789224454
aF1.3170122622172502
aF0.4808051843140187
aF1.838460168658185
aF0.20921347042958527
aF1.4244988724417045
aF0.11502394159385856
aF1.0456539933947413
asg9
(lp53
sg11
(lp54
ssS'BGMR_PCA'
p55
(dp56
g3
(lp57
I01
aI01
aI01
aI01
aI01
aI01
aI01
aI01
aI01
aI01
aI01
aI01
aI01
aI01
aI00
aI00
aI01
aI01
aI01
aI01
aI01
aI01
aI01
aI01
aI01
aI01
aI00
aI01
aI01
aI01
aI00
aI01
aI01
aI01
aI01
aI00
aI01
aI01
aI01
aI01
aI01
aI01
aI01
aI01
aI01
aI01
aI01
aI01
aI01
aI01
aI01
aI01
aI00
aI01
aI01
aI01
aI01
aI01
aI01
aI01
aI01
aI01
aI00
aI01
aI01
aI01
aI01
aI00
aI01
aI01
aI01
aI00
aI01
aI01
aI01
aI01
aI01
aI01
aI01
aI01
aI01
aI01
aI01
aI01
aI01
aI01
aI01
aI00
aI01
aI01
aI01
aI00
aI01
aI01
aI01
aI00
aI01
aI01
aI01
aI01
asg5
(lp58
F0.8536701202392578
aF0.825206995010376
aF1.410330057144165
aF0.6765952110290527
aF0.35155797004699707
aF1.023184061050415
aF1.7736279964447021
aF1.7931671142578125
aF0.7944388389587402
aF1.1261861324310303
aF1.2347660064697266
aF0.6163821220397949
aF1.0217030048370361
aF1.6976640224456787
aF1.5034151077270508
aF0.799813985824585
aF0.8778960704803467
aF0.7633159160614014
aF0.9602620601654053
aF0.5660901069641113
aF0.41433215141296387
aF1.3377258777618408
aF0.3894829750061035
aF0.49559879302978516
aF0.6718108654022217
aF1.3152828216552734
aF0.9920721054077148
aF0.746103048324585
aF0.9792509078979492
aF0.418320894241333
aF0.8789398670196533
aF0.8084931373596191
aF0.3595879077911377
aF0.8398561477661133
aF1.267029047012329
aF0.7167949676513672
aF1.119217872619629
aF0.7959840297698975
aF1.1593210697174072
aF1.8463687896728516
aF0.5295460224151611
aF0.48953700065612793
aF0.9127259254455566
aF0.9209709167480469
aF0.4913170337677002
aF1.3912479877471924
aF0.580374002456665
aF0.7052249908447266
aF0.6814939975738525
aF0.33379387855529785
aF0.5389471054077148
aF0.781109094619751
aF1.4813690185546875
aF0.46556901931762695
aF0.37125706672668457
aF0.5467510223388672
aF0.8130741119384766
aF0.8928251266479492
aF0.8679769039154053
aF0.9842188358306885
aF1.531912088394165
aF0.6304171085357666
aF0.8993968963623047
aF0.5820188522338867
aF0.3700840473175049
aF0.3998830318450928
aF1.2430880069732666
aF1.046536922454834
aF0.38917088508605957
aF0.9431209564208984
aF2.109238862991333
aF0.946707010269165
aF0.5149600505828857
aF0.5824971199035645
aF0.4110870361328125
aF0.5250511169433594
aF0.5474131107330322
aF0.7775359153747559
aF1.0015180110931396
aF1.0820329189300537
aF1.1756258010864258
aF1.07582688331604
aF0.6779360771179199
aF1.2221589088439941
aF0.9726090431213379
aF0.41130995750427246
aF1.3243331909179688
aF0.6474599838256836
aF2.200943946838379
aF0.5075609683990479
aF0.42188501358032227
aF1.049428939819336
aF1.906609058380127
aF0.7998409271240234
aF3.3969850540161133
aF1.3107218742370605
aF0.5258591175079346
aF0.6476309299468994
aF2.162466049194336
aF3.770707130432129
asg7
(lp59
F1.054863265663519
aF1.9068048428016715
aF1.8745413618026652
aF0.7789876824895852
aF0.255060794741823
aF1.462401818504061
aF0.25663409686723354
aF1.4028136537103517
aF2.4807962117970983
aF1.804777325166001
aF1.334371060366937
aF1.1240252115312424
aF1.9413826117632207
aF2.5528788995699605
aF0.6940316575303369
aF2.10601060848836
aF0.13935487840313407
aF1.2636656183605117
aF1.7178581329787512
aF1.8240048514344542
aF0.1813644341155031
aF0.7184247214766415
aF1.324705211954056
aF1.3676592140097763
aF0.7237258528945747
aF3.6723181414709676
aF2.2953242573806336
aF2.1018541059280955
aF1.392386494349433
aF0.16457160298199033
aF1.2767087851131087
aF0.9298716578631446
aF1.5208483366964023
aF0.4476664405754057
aF0.2788824232603952
aF2.4705194488488167
aF2.5387776558495476
aF2.128248426485036
aF0.7254146994969167
aF1.7446351277961218
aF1.172574681496193
aF2.299678032456859
aF1.2959004823332085
aF1.5339068189797802
aF0.3258916922633794
aF0.38851924520301007
aF0.9996096373350296
aF0.19774920531074747
aF2.4291263933909635
aF1.7662692806858835
aF1.0659929457083008
aF2.164661389494987
aF2.1894885696531055
aF1.3452973822354088
aF1.0037668620215188
aF0.879446084740568
aF1.0531098060731643
aF2.578521462632853
aF2.084503934973222
aF1.8755386933390845
aF0.49812164018627597
aF0.0358224147578794
aF1.7169211490609086
aF1.2924174008719855
aF1.3863548289145455
aF1.2287255853200438
aF1.1781772589331452
aF1.5110936842035203
aF0.21693914316740656
aF0.4370980184567972
aF0.2126806014596187
aF2.8763483176750384
aF0.44838667416998745
aF1.4361446196214287
aF1.3881100999627705
aF1.9064096010340283
aF1.678837959471858
aF0.7305743289328838
aF0.6364008552167576
aF0.2968929825313066
aF1.5506306203245523
aF2.58741469665521
aF0.369567770901136
aF1.795969821458609
aF0.3354945825165283
aF1.0351618932224487
aF1.2365788858085016
aF1.039833798433778
aF2.2597220321291807
aF1.066784905102599
aF2.170078186971894
aF1.6643622445021105
aF1.69789015103099
aF1.3881681191327326
aF0.46454540423338947
aF2.243614177549141
aF0.211107971405339
aF1.4265660943356
aF0.1007288704068823
aF1.005583347207059
asg9
(lp60
sg11
(lp61
ss.