(dp0
S'GPR    '
p1
(dp2
S'successes'
p3
(lp4
I01
aI00
aI00
aI01
aI01
aI01
aI00
aI01
aI01
aI01
aI01
aI01
aI01
aI01
aI00
aI01
aI01
aI01
aI01
aI01
aI01
aI01
aI01
aI01
aI01
aI00
aI01
aI01
aI00
aI01
aI00
aI01
aI01
aI01
aI01
aI01
aI01
aI01
aI01
aI01
aI01
aI01
aI01
aI01
aI01
aI01
aI01
aI01
aI01
aI01
aI01
aI01
aI01
aI01
aI01
aI01
aI01
aI01
aI01
aI01
aI01
aI01
aI01
aI01
aI01
aI01
aI01
aI00
aI01
aI01
aI01
aI00
aI01
aI01
aI01
aI01
aI01
aI01
aI01
aI01
aI01
aI00
aI01
aI01
aI01
aI01
aI01
aI00
aI01
aI01
aI01
aI00
aI01
aI01
aI01
aI00
aI01
aI01
aI01
aI01
asS'comp_times'
p5
(lp6
F1.1206982135772705
aF0.8463709354400635
aF1.9899168014526367
aF0.46750378608703613
aF0.5439648628234863
aF1.065176010131836
aF0.6528630256652832
aF1.7995059490203857
aF0.7710239887237549
aF0.7742002010345459
aF0.5623650550842285
aF0.4285738468170166
aF0.8318898677825928
aF1.3044359683990479
aF1.1549689769744873
aF1.0130400657653809
aF1.219689130783081
aF0.5629830360412598
aF1.8628230094909668
aF0.5650060176849365
aF0.29657888412475586
aF0.5850329399108887
aF0.5509600639343262
aF0.49489903450012207
aF0.4360392093658447
aF0.9066259860992432
aF0.7481100559234619
aF0.5586259365081787
aF0.865286111831665
aF0.3185131549835205
aF0.9428250789642334
aF0.5249588489532471
aF0.8283059597015381
aF1.1085150241851807
aF0.4864218235015869
aF0.5093960762023926
aF1.4717988967895508
aF0.9408469200134277
aF0.8024880886077881
aF1.0480191707611084
aF0.5206022262573242
aF0.3341341018676758
aF0.9040939807891846
aF0.6666820049285889
aF0.27660608291625977
aF1.0120060443878174
aF0.39356398582458496
aF0.6822590827941895
aF0.6487829685211182
aF0.502528190612793
aF0.3829660415649414
aF1.7447011470794678
aF1.3204350471496582
aF0.4257340431213379
aF0.4782369136810303
aF0.7392261028289795
aF0.8035061359405518
aF0.4305460453033447
aF1.2235710620880127
aF0.8821229934692383
aF1.2424437999725342
aF1.1151540279388428
aF0.688838005065918
aF0.8429851531982422
aF1.1011571884155273
aF0.5251960754394531
aF1.1164209842681885
aF0.6449170112609863
aF0.6179549694061279
aF1.0398199558258057
aF1.1308979988098145
aF1.627351999282837
aF0.5829970836639404
aF0.5837578773498535
aF0.48270106315612793
aF0.8653130531311035
aF0.32076215744018555
aF0.8283400535583496
aF0.8518497943878174
aF0.7939591407775879
aF1.1094510555267334
aF1.4589240550994873
aF0.6459081172943115
aF0.6158368587493896
aF1.5683839321136475
aF0.39696288108825684
aF1.347810983657837
aF1.0987169742584229
aF1.3358919620513916
aF0.675225019454956
aF0.8631680011749268
aF0.7672510147094727
aF1.0715370178222656
aF0.8104021549224854
aF1.7869060039520264
aF0.8062551021575928
aF0.3594210147857666
aF0.6520860195159912
aF0.8697509765625
aF1.0076110363006592
asS'costs'
p7
(lp8
F0.9905209597270508
aF1.9727066338928911
aF2.1593072485953164
aF0.6381975424432715
aF0.2550756491027315
aF1.547836662667692
aF0.2948388310939372
aF1.5807359277696813
aF2.45124182018863
aF1.7668974349348816
aF1.2099662870494503
aF1.129137640772973
aF1.8705199386495082
aF2.4977856464900734
aF0.41609363704574764
aF2.145444829347037
aF0.13309248059801052
aF1.2322375989023453
aF1.6490248552333833
aF1.8463472114118975
aF0.19154540404120138
aF0.7323156293824555
aF1.3343857387268954
aF1.3681177709488352
aF0.7214617991312398
aF3.7445365099087704
aF1.930795595942457
aF2.10382966467952
aF1.1310021715270242
aF0.16457160298176235
aF1.1806445506595322
aF0.903017066291418
aF1.5132230912941498
aF0.3692336246194911
aF0.2490533686932052
aF2.1192289172850907
aF2.5363623558624395
aF1.9966157493254004
aF0.45580604293741067
aF1.7467497803808034
aF1.1685445743442135
aF2.2779404430324712
aF1.137780200745905
aF1.4707484918982325
aF0.3284564742781174
aF0.43984565800753106
aF1.0174693046932586
aF0.21989126111901225
aF2.487243659288118
aF1.7665601035477774
aF1.080455386364376
aF2.1436375099513167
aF1.8476837766226177
aF1.3470165661285602
aF1.0014401666219224
aF0.8699313839641363
aF1.0832673896668221
aF2.586726272826647
aF2.0076044426822794
aF2.114058829780999
aF0.45187885241812453
aF0.03636767478410693
aF1.2788468927411853
aF1.2991605261436887
aF1.3870016603615103
aF1.1581242494285515
aF1.1831447351045212
aF1.5455299691433857
aF0.2065607732174223
aF0.4113202752976101
aF0.2166074547440775
aF3.119447423017677
aF0.43505927107158243
aF1.3251662842391028
aF1.3879348363815016
aF1.9679280981875842
aF1.67626646239933
aF0.7222964525641042
aF0.6624429645957461
aF0.3016239685066803
aF1.6261887065729514
aF3.347670012538721
aF0.3668503281558559
aF1.7350626412550276
aF0.251960915478629
aF1.0392437820931988
aF1.2057055266874515
aF1.0151290790294054
aF2.23222507772941
aF1.169559421035387
aF2.0967904682948793
aF1.588584763852366
aF1.7417483736594346
aF1.1791773091303601
aF0.5017244592950316
aF1.7680898685598945
aF0.20582314661226453
aF1.4294386068457572
aF0.11101305640790582
aF1.1967254118838078
asS'func_evals'
p9
(lp10
sS'qp_solves'
p11
(lp12
ssS'NN      '
p13
(dp14
g3
(lp15
I00
aI00
aI01
aI01
aI01
aI00
aI00
aI00
aI01
aI01
aI01
aI01
aI00
aI00
aI00
aI01
aI01
aI01
aI00
aI01
aI00
aI01
aI00
aI01
aI01
aI00
aI00
aI01
aI00
aI01
aI01
aI01
aI00
aI00
aI01
aI00
aI00
aI01
aI00
aI00
aI01
aI00
aI00
aI00
aI01
aI00
aI01
aI01
aI01
aI01
aI01
aI00
aI00
aI01
aI01
aI01
aI01
aI01
aI00
aI01
aI01
aI01
aI00
aI00
aI01
aI01
aI00
aI01
aI00
aI01
aI01
aI00
aI01
aI00
aI01
aI01
aI01
aI01
aI00
aI00
aI01
aI01
aI01
aI01
aI00
aI01
aI01
aI01
aI01
aI01
aI01
aI00
aI01
aI00
aI00
aI00
aI00
aI01
aI01
aI00
asg5
(lp16
F0.7084050178527832
aF0.46283817291259766
aF1.7449378967285156
aF1.287627935409546
aF1.4442331790924072
aF1.8537278175354004
aF1.0209391117095947
aF2.147040843963623
aF1.336517095565796
aF1.833035945892334
aF2.429212808609009
aF2.666095018386841
aF0.7019708156585693
aF1.556462049484253
aF0.9210820198059082
aF0.8090651035308838
aF1.141373872756958
aF0.9184420108795166
aF0.6240239143371582
aF1.3585119247436523
aF0.6190640926361084
aF0.8620610237121582
aF0.7749991416931152
aF0.68780517578125
aF0.9987220764160156
aF2.5415709018707275
aF1.7775330543518066
aF1.235748052597046
aF1.9273579120635986
aF0.6339561939239502
aF0.8553500175476074
aF0.9316840171813965
aF1.3324120044708252
aF1.5493991374969482
aF3.288243055343628
aF1.2010891437530518
aF1.2551980018615723
aF0.9490718841552734
aF1.0645880699157715
aF2.337576150894165
aF1.8094570636749268
aF1.6537401676177979
aF0.9882011413574219
aF2.1685712337493896
aF1.08742094039917
aF0.8820769786834717
aF0.4555790424346924
aF0.3090169429779053
aF1.0420489311218262
aF0.577103853225708
aF2.4154908657073975
aF0.5557351112365723
aF0.9889020919799805
aF1.8314309120178223
aF0.785167932510376
aF1.4419059753417969
aF1.8955650329589844
aF0.8816819190979004
aF0.8717632293701172
aF1.108057975769043
aF0.6201269626617432
aF3.189460039138794
aF0.7050259113311768
aF1.047349214553833
aF1.3275349140167236
aF0.39566707611083984
aF3.0376710891723633
aF0.6630661487579346
aF0.5464770793914795
aF0.7429640293121338
aF2.7568821907043457
aF1.119149923324585
aF0.6113481521606445
aF2.146738052368164
aF0.5497629642486572
aF1.1166059970855713
aF1.5058209896087646
aF0.9842319488525391
aF1.6151819229125977
aF1.5117499828338623
aF0.9909899234771729
aF1.5490601062774658
aF1.3969800472259521
aF1.1123600006103516
aF0.48374485969543457
aF0.6948390007019043
aF1.1008930206298828
aF1.0259699821472168
aF2.0229909420013428
aF2.246623992919922
aF1.3549060821533203
aF1.0798530578613281
aF1.0615999698638916
aF1.351276159286499
aF1.5695431232452393
aF0.7026059627532959
aF0.6274938583374023
aF1.0653901100158691
aF1.4411630630493164
aF2.977437973022461
asg7
(lp17
F9.936077705791817
aF1.946971339345315
aF1.9701300176556962
aF0.6050575529834973
aF0.6701566771168717
aF3.3816566256584695
aF3.252350936492477
aF3.2710949025411677
aF3.905008700710316
aF2.0868714967117046
aF1.3374755599939459
aF1.1338783844570195
aF3.6850397182776744
aF2.6777745513360416
aF2.4526136953093998
aF2.15750754328263
aF0.14081404771839773
aF1.3147829593817761
aF6.229160234454623
aF1.8026263652824355
aF2.637215196360314
aF0.7144473307503799
aF1.7455427588377546
aF1.4124317935408595
aF0.7143756649851946
aF9.883820020334207
aF5.890135329904548
aF2.1102754277149787
aF3.419271854146932
aF0.164648494534262
aF1.997282196262987
aF1.465303477035791
aF3.2891462016215245
aF1.890906121596812
aF0.8815582094274916
aF4.048541665506999
aF4.1146210342554
aF2.010581907235932
aF3.596446159590117
aF5.792741281188018
aF1.1642518504567403
aF6.23972182569554
aF1.7040315923596006
aF10.099695352110777
aF0.7233192084177483
aF1.0435170895054042
aF0.9958871021834148
aF3.7898719448327225
aF2.477869553744517
aF1.7662691213086097
aF1.0694694799738695
aF8.018551033678976
aF4.717264970762582
aF1.5098433395638031
aF1.000946960546691
aF1.3189137518893577
aF1.0610565862875285
aF2.5666230758478914
aF6.288222903892181
aF1.925482795642737
aF0.4563912796857715
aF0.036098575606621115
aF3.6145457094638593
aF3.4453671988559194
aF2.637954475479565
aF2.5948006029775046
aF2.3410407811938354
aF1.6670153970045247
aF2.1612809235154815
aF0.7319571629760082
aF0.5367003279715893
aF7.059816565516076
aF0.4361263504707529
aF2.984968682549184
aF1.383285344152216
aF2.0816153524154934
aF2.911909859141653
aF0.8461539097268416
aF2.2794618651515144
aF2.114435412697117
aF1.4530607441524692
aF2.323071267746229
aF0.4889795138115056
aF1.7380410615061241
aF0.8391743472817019
aF1.0398239694481106
aF1.4976427738678832
aF1.739343147825423
aF2.164455869400941
aF1.3770035440378439
aF2.070956077749738
aF8.294974436541514
aF1.7738860058171804
aF1.5428333028082868
aF1.3549971625552883
aF1.56104972832788
aF2.37135156429079
aF1.4299037668319958
aF0.11894301443221197
aF5.952398650957169
asg9
(lp18
sg11
(lp19
ssS'waypoints'
p20
(dp21
g3
(lp22
I01
aI01
aI01
aI01
aI01
aI01
aI01
aI00
aI01
aI01
aI01
aI01
aI01
aI01
aI01
aI01
aI01
aI01
aI01
aI01
aI01
aI01
aI01
aI01
aI01
aI01
aI01
aI01
aI01
aI01
aI01
aI01
aI01
aI01
aI01
aI01
aI01
aI01
aI01
aI01
aI01
aI01
aI01
aI01
aI01
aI00
aI01
aI01
aI01
aI01
aI01
aI01
aI01
aI01
aI01
aI01
aI01
aI01
aI00
aI01
aI01
aI01
aI01
aI01
aI01
aI01
aI01
aI01
aI01
aI01
aI01
aI01
aI01
aI01
aI01
aI01
aI01
aI01
aI01
aI01
aI00
aI01
aI01
aI01
aI01
aI01
aI01
aI01
aI01
aI01
aI01
aI00
aI01
aI01
aI00
aI00
aI01
aI01
aI01
aI01
asg5
(lp23
F1.2205688953399658
aF1.8198928833007812
aF1.7212071418762207
aF0.7176721096038818
aF1.2202839851379395
aF1.0197250843048096
aF1.7337608337402344
aF2.24082612991333
aF1.6257851123809814
aF1.9246909618377686
aF1.719275951385498
aF0.717926025390625
aF1.3191859722137451
aF1.9246370792388916
aF2.1226489543914795
aF3.6270668506622314
aF0.9187140464782715
aF1.2195758819580078
aF1.5214850902557373
aF1.4230268001556396
aF0.5202741622924805
aF1.4208118915557861
aF0.7265720367431641
aF0.7195959091186523
aF1.02069091796875
aF1.7217459678649902
aF1.020751953125
aF1.0213050842285156
aF1.623011827468872
aF0.41878390312194824
aF1.921802043914795
aF1.2253079414367676
aF0.8212981224060059
aF1.3226778507232666
aF1.6267430782318115
aF1.3235700130462646
aF1.7236058712005615
aF1.9231610298156738
aF1.9216620922088623
aF2.229588031768799
aF0.8278899192810059
aF0.7204868793487549
aF2.12945294380188
aF2.32839298248291
aF0.7221159934997559
aF3.0244839191436768
aF1.4251899719238281
aF1.3266630172729492
aF1.6222259998321533
aF0.4205482006072998
aF1.2242188453674316
aF1.0238499641418457
aF2.928865909576416
aF0.8295509815216064
aF1.1247129440307617
aF1.1273767948150635
aF1.7264759540557861
aF0.9227900505065918
aF3.031355857849121
aF1.9280800819396973
aF1.7234880924224854
aF0.619891881942749
aF0.9276590347290039
aF0.8272218704223633
aF0.7216949462890625
aF1.2223150730133057
aF2.027956008911133
aF1.2318670749664307
aF0.8205511569976807
aF1.0303621292114258
aF2.2243199348449707
aF2.5304489135742188
aF1.0242290496826172
aF1.830137014389038
aF0.8278460502624512
aF1.8301289081573486
aF0.727078914642334
aF1.6236209869384766
aF1.5237598419189453
aF1.423902988433838
aF3.3305599689483643
aF1.628920078277588
aF1.8287618160247803
aF1.8228530883789062
aF1.1232430934906006
aF1.0242900848388672
aF1.4244389533996582
aF2.225267171859741
aF2.8270699977874756
aF1.6246378421783447
aF1.429136037826538
aF1.829712152481079
aF2.432305097579956
aF1.324383020401001
aF3.1279420852661133
aF2.928658962249756
aF0.522529125213623
aF1.1303410530090332
aF1.731963872909546
aF3.131363868713379
asg7
(lp24
F1.92581201044261
aF2.0002906742948223
aF2.240378779549394
aF0.6052680602120164
aF0.2549029399087788
aF1.391065623697057
aF8.746534630240133
aF8.266603065935135
aF2.5828998639194434
aF2.8076225796372443
aF1.3720847325152503
aF1.1297866932725646
aF5.279159802347377
aF6.082376824437365
aF0.9049886287499133
aF2.123024121372007
aF0.14110123623195434
aF1.2375993737676776
aF3.007111696567934
aF1.8031443909080078
aF0.18139997394532573
aF0.7495101861484728
aF1.3030265949710091
aF1.3860176974230904
aF0.712711646257115
aF3.6177048372938017
aF1.8077351238942012
aF2.106812933631206
aF1.2645763756723616
aF0.1645716029817875
aF4.319405583892855
aF0.9133964662874383
aF1.5717686811674274
aF0.640378512734983
aF0.16051296681339602
aF2.1187853448782206
aF4.774626281701351
aF2.159431920551497
aF3.663336982230842
aF3.36802045529313
aF1.163161200120129
aF2.277226988616111
aF2.3147557894637045
aF1.5120170576303738
aF0.3114251511918411
aF1.1902517817769451
aF0.9980858086823632
aF0.34913490519045537
aF2.435913450547537
aF1.7663842268133596
aF1.0677546793040775
aF2.2210919473074444
aF2.2496462300958218
aF1.3299744172849322
aF1.0023985012804844
aF1.0125699470338791
aF1.0607964820024998
aF2.5796460263237506
aF6.603757596213016
aF1.8689505703362084
aF0.45813142801506035
aF0.03744134131515595
aF1.1377567463130327
aF1.290854244473255
aF1.3867063713789098
aF1.2788854370819753
aF1.2876296864400707
aF1.6806243933443177
aF0.211372599693449
aF0.7741686700696968
aF0.4297847190360465
aF3.1244438277923963
aF0.44014242203077614
aF1.7175215062896332
aF1.3902952416023973
aF1.858929742968224
aF1.6620426505851553
aF0.7193924926763473
aF0.6585341736687135
aF5.849725495956933
aF5.158838981541182
aF2.255249946378953
aF0.4268120221150688
aF3.154110527739512
aF0.2513955628112846
aF1.01187735515871
aF1.2102379710119753
aF3.3502899193826425
aF2.4427349278486203
aF1.0565890672851557
aF2.1481139713913784
aF5.0213014542502705
aF1.7679134237916616
aF1.2141430714576156
aF11.332104313974433
aF2.2072184647455657
aF0.20582852987964545
aF1.444004079630345
aF2.3398879937352626
aF0.9787488289084127
asg9
(lp25
sg11
(lp26
ssS'ensemble'
p27
(dp28
g3
(lp29
I01
aI01
aI01
aI01
aI01
aI01
aI01
aI01
aI01
aI01
aI01
aI01
aI01
aI01
aI01
aI01
aI01
aI01
aI01
aI01
aI01
aI01
aI01
aI01
aI01
aI01
aI01
aI01
aI01
aI01
aI01
aI01
aI01
aI01
aI01
aI01
aI01
aI01
aI01
aI01
aI01
aI01
aI01
aI01
aI01
aI01
aI01
aI01
aI01
aI01
aI01
aI01
aI01
aI01
aI01
aI01
aI01
aI01
aI01
aI01
aI01
aI01
aI01
aI01
aI01
aI01
aI01
aI01
aI01
aI01
aI01
aI01
aI01
aI01
aI01
aI01
aI01
aI01
aI01
aI01
aI01
aI01
aI01
aI01
aI01
aI01
aI01
aI01
aI01
aI01
aI01
aI01
aI01
aI01
aI01
aI00
aI01
aI01
aI01
aI01
asg5
(lp30
F1.519007921218872
aF1.6211280822753906
aF2.2224581241607666
aF0.628525972366333
aF0.8187389373779297
aF0.923652172088623
aF1.1320888996124268
aF1.5202250480651855
aF1.2191259860992432
aF1.1214969158172607
aF1.2268040180206299
aF0.8305001258850098
aF1.219425916671753
aF1.821786880493164
aF1.7211329936981201
aF1.2272999286651611
aF1.120009183883667
aF1.2272648811340332
aF2.1213929653167725
aF0.9203650951385498
aF0.5193579196929932
aF0.9241499900817871
aF0.7258491516113281
aF0.8220748901367188
aF0.8199591636657715
aF1.7244641780853271
aF1.0193438529968262
aF0.9209868907928467
aF1.5203120708465576
aF0.3180091381072998
aF1.323573112487793
aF0.8191490173339844
aF1.230180025100708
aF1.52302885055542
aF0.8206000328063965
aF0.922231912612915
aF1.5240299701690674
aF1.1219239234924316
aF1.220999002456665
aF1.221679925918579
aF0.7219898700714111
aF0.6214890480041504
aF1.3227260112762451
aF1.122525930404663
aF0.5223958492279053
aF1.6280500888824463
aF0.7228829860687256
aF0.6199140548706055
aF0.9231529235839844
aF0.42133212089538574
aF0.927731990814209
aF1.621218204498291
aF1.8244900703430176
aF0.6242849826812744
aF0.7212648391723633
aF1.2220261096954346
aF1.427536964416504
aF0.7207291126251221
aF1.4259450435638428
aF1.4277889728546143
aF1.2304840087890625
aF0.7242250442504883
aF1.0210211277008057
aF0.725898027420044
aF0.8245391845703125
aF0.825498104095459
aF1.223177194595337
aF1.3302068710327148
aF0.7278399467468262
aF1.024388074874878
aF1.1292829513549805
aF2.430253028869629
aF0.928184986114502
aF1.0242400169372559
aF0.8286640644073486
aF1.4294939041137695
aF0.6233479976654053
aF1.4241340160369873
aF1.2248401641845703
aF1.6310670375823975
aF1.6247539520263672
aF2.3277029991149902
aF1.2276029586791992
aF0.9278750419616699
aF1.9337239265441895
aF0.7234218120574951
aF1.3296499252319336
aF1.7238662242889404
aF1.7294189929962158
aF1.1237092018127441
aF1.0245659351348877
aF1.9286489486694336
aF1.7255940437316895
aF1.1292979717254639
aF1.5265700817108154
aF1.724998950958252
aF0.6238369941711426
aF0.9249000549316406
aF1.22589111328125
aF1.6261639595031738
asg7
(lp31
F0.9905209597270508
aF1.9334320523591424
aF2.319057821745864
aF0.6052272123702921
aF0.25629839858593084
aF1.3836739758086856
aF0.221863674224882
aF1.8665402705863565
aF2.45124182018863
aF1.7676714962279596
aF1.2099662870494503
aF1.129137640772973
aF1.8705199386495082
aF2.4977856464900734
aF0.4956718351866492
aF1.9988651321831403
aF0.15393535258564736
aF1.2369297746165122
aF1.8607706712731866
aF1.8463472114118975
aF0.19182294257526553
aF0.7437187627971167
aF1.3030263106258826
aF1.3681177709488352
aF0.7214617991312398
aF3.528934216452705
aF1.8373621467134202
aF2.10382966467952
aF1.1187384835320249
aF0.16457160298176057
aF1.997282196262987
aF0.903017066291418
aF1.5225478787977387
aF0.3692336246194911
aF0.2490533686932052
aF2.1310243706666756
aF2.670518347105567
aF2.0782417370053277
aF0.45580604293741067
aF1.7584957090788271
aF1.163174815253966
aF2.278151056711578
aF1.1319018515282688
aF1.4627512508255307
aF0.3129854105769564
aF0.43984565800753106
aF1.0174693046932586
aF3.7898719448327225
aF2.5554620224994946
aF1.7663799533567144
aF1.080455386364376
aF2.029573105899066
aF1.8476837766226177
aF1.3295293173504323
aF1.0014401666219224
aF0.8707092302194296
aF1.0832673896668221
aF2.586726272826647
aF2.2115006524032954
aF2.114058829780999
aF0.4563912796857715
aF0.03745774797067863
aF1.1289781900957279
aF1.2932138390899872
aF1.3854138806775278
aF2.5948006029775046
aF1.2237410795806636
aF1.5417119306814093
aF0.2058908654993333
aF0.4113202752976101
aF0.23982124644587863
aF3.288966255935634
aF0.43921289100369343
aF1.3251662842391028
aF1.3859494332753624
aF1.9553887923972
aF1.67626646239933
aF0.7228482891628603
aF0.6727096194269999
aF0.3016239685066803
aF1.4530607441524692
aF2.323071267746229
aF0.3668503281558559
aF1.7350626412550276
aF0.25196091547864286
aF1.0392437820931988
aF1.2057055266874515
aF1.739343147825423
aF2.244005799340252
aF1.064896545820225
aF2.2713023399593504
aF1.3716217282004095
aF1.7417483736594346
aF1.2019799105958295
aF0.9025666278605441
aF1.8081019288435536
aF0.2058244638605438
aF1.4396931408115183
aF0.17597968363724018
aF1.1967254118838078
asg9
(lp32
sg11
(lp33
ssS'STD    '
p34
(dp35
g3
(lp36
I00
aI01
aI00
aI01
aI01
aI01
aI01
aI01
aI01
aI01
aI01
aI01
aI00
aI00
aI00
aI00
aI01
aI01
aI01
aI01
aI01
aI01
aI01
aI01
aI01
aI00
aI01
aI01
aI01
aI01
aI01
aI01
aI01
aI01
aI01
aI00
aI01
aI00
aI00
aI00
aI01
aI01
aI01
aI01
aI01
aI00
aI01
aI01
aI01
aI01
aI01
aI01
aI00
aI01
aI01
aI01
aI01
aI01
aI01
aI01
aI01
aI01
aI01
aI01
aI01
aI01
aI01
aI01
aI01
aI01
aI01
aI00
aI01
aI00
aI01
aI01
aI01
aI01
aI01
aI01
aI01
aI00
aI00
aI00
aI01
aI01
aI01
aI01
aI00
aI01
aI01
aI00
aI01
aI01
aI01
aI00
aI01
aI01
aI01
aI00
asg5
(lp37
F1.3420588970184326
aF1.1834781169891357
aF1.061211109161377
aF0.14559197425842285
aF0.22969579696655273
aF0.4307689666748047
aF0.5242829322814941
aF1.0182030200958252
aF1.0753798484802246
aF0.8679649829864502
aF1.3139300346374512
aF0.33249807357788086
aF1.1845300197601318
aF1.1172759532928467
aF1.4251229763031006
aF0.7859320640563965
aF0.5270349979400635
aF0.5391221046447754
aF0.9359900951385498
aF1.2387008666992188
aF0.2383410930633545
aF0.8110158443450928
aF0.21808815002441406
aF0.544450044631958
aF0.5021660327911377
aF1.5902080535888672
aF0.6138041019439697
aF0.5285940170288086
aF0.8821730613708496
aF0.10488700866699219
aF0.9631099700927734
aF0.4922480583190918
aF0.4764220714569092
aF1.7723720073699951
aF0.9034960269927979
aF1.2818090915679932
aF1.6288042068481445
aF1.1093430519104004
aF0.89552903175354
aF0.8519589900970459
aF0.2856779098510742
aF0.6156129837036133
aF0.9764740467071533
aF1.3546738624572754
aF0.2651100158691406
aF3.461398124694824
aF0.5479369163513184
aF0.6607670783996582
aF0.83125901222229
aF0.14930200576782227
aF0.8080840110778809
aF0.7030749320983887
aF2.165647029876709
aF0.3011748790740967
aF1.2990000247955322
aF0.7489910125732422
aF0.9785251617431641
aF0.5598819255828857
aF1.1147751808166504
aF0.9267148971557617
aF1.2253830432891846
aF0.31740403175354004
aF0.5876669883728027
aF0.38417887687683105
aF0.48132801055908203
aF0.8433279991149902
aF1.276583194732666
aF0.5693230628967285
aF0.2785530090332031
aF1.2260510921478271
aF1.6291530132293701
aF0.7392518520355225
aF0.7067821025848389
aF2.0550179481506348
aF0.48648500442504883
aF0.8445179462432861
aF0.44354987144470215
aF0.795086145401001
aF0.9896500110626221
aF1.5288879871368408
aF1.7462868690490723
aF1.402677059173584
aF0.8020830154418945
aF1.0130188465118408
aF1.204962968826294
aF0.6130819320678711
aF0.7556309700012207
aF1.2798810005187988
aF2.5907142162323
aF0.9313619136810303
aF0.7575259208679199
aF0.5856649875640869
aF0.9983091354370117
aF1.2405438423156738
aF1.5076160430908203
aF0.9236338138580322
aF0.24282193183898926
aF0.803246021270752
aF0.682744026184082
aF1.3217251300811768
asg7
(lp38
F1.0716447857703768
aF1.9334320523591424
aF3.19114514801563
aF0.6052272123702921
aF0.25629839858593084
aF1.3836739758086856
aF0.221863674224882
aF1.8665402705863565
aF2.5348688660520606
aF1.6489694980351237
aF1.2077416972578248
aF1.124584703729052
aF3.298449374168541
aF2.3893457292010303
aF0.38960444056123056
aF1.9453712345217384
aF0.15393535258564736
aF1.3076542998094949
aF1.8607706712731866
aF1.9435174780867974
aF0.1830075308206108
aF0.7430314758841792
aF1.3030263106258826
aF1.3626676492275258
aF0.7164638486815408
aF4.576486404201669
aF1.7589289627015925
aF2.140901205027366
aF1.2303497796416434
aF0.16457160298176057
aF1.1965198725181296
aF0.9153644913966081
aF1.5522473886387782
aF0.5088450632353584
aF0.20944500878635758
aF2.298597084693932
aF2.5391328426896105
aF2.1657033579557057
aF0.5918097777646053
aF2.1741508519860764
aF1.163174815253966
aF2.276801701313915
aF1.3141682703092579
aF1.4566363262195638
aF0.31142774462961836
aF0.5967442043287275
aF1.0025423798430644
aF0.3410273984639615
aF2.4441360076385688
aF1.7663799533567144
aF1.0680909050796321
aF2.0299589043521733
aF2.4720495976406496
aF1.3295293173504323
aF1.0055811139753528
aF0.8787682903802639
aF1.0624543104625164
aF2.5795324101742394
aF2.045586758357368
aF1.8436876407478813
aF0.4553897966100422
aF0.03745774797067863
aF1.1289781900957279
aF1.2916398281184285
aF1.3854138806775278
aF1.1443307716440205
aF1.316237446991489
aF1.5417119306814093
aF0.21135581620586524
aF0.4014582982575407
aF0.23532636935039136
aF2.994562383156699
aF0.42499049073769235
aF2.9464711646882855
aF1.3863912619066918
aF1.8995597015787626
aF1.6687076388472275
aF0.7308358705466101
aF0.6553342662811056
aF0.2990519253506598
aF1.5522653017966694
aF3.69674343877107
aF0.7043867366399086
aF2.045063808274854
aF0.3811445931570462
aF1.0065887172259194
aF1.209942830252145
aF1.0203898492576282
aF4.814960650680098
aF1.168064764741413
aF2.097841098589516
aF1.4013484323532626
aF1.6868017453981603
aF1.2716284766720607
aF0.6069431040450354
aF2.217076124859205
aF0.2058244638605438
aF1.4893668079665254
aF0.11530583861275474
aF0.9647148037154522
asg9
(lp39
sg11
(lp40
ssS'GPR_PCA'
p41
(dp42
g3
(lp43
I00
aI00
aI01
aI01
aI01
aI01
aI00
aI01
aI01
aI01
aI01
aI01
aI01
aI00
aI00
aI01
aI01
aI01
aI01
aI01
aI01
aI01
aI01
aI01
aI01
aI01
aI01
aI01
aI01
aI01
aI00
aI01
aI01
aI01
aI01
aI01
aI01
aI01
aI01
aI01
aI01
aI01
aI01
aI01
aI01
aI01
aI01
aI00
aI01
aI01
aI01
aI01
aI00
aI01
aI01
aI01
aI01
aI01
aI01
aI01
aI00
aI01
aI01
aI01
aI01
aI01
aI01
aI01
aI01
aI01
aI01
aI01
aI01
aI01
aI01
aI01
aI01
aI01
aI01
aI01
aI01
aI00
aI01
aI01
aI01
aI01
aI01
aI00
aI01
aI01
aI01
aI00
aI01
aI01
aI00
aI00
aI01
aI01
aI01
aI01
asg5
(lp44
F1.1329610347747803
aF0.8705410957336426
aF1.8610670566558838
aF0.4793980121612549
aF0.4746971130371094
aF0.5502309799194336
aF0.46298813819885254
aF1.75724196434021
aF0.7731578350067139
aF0.6907238960266113
aF0.5530228614807129
aF0.3433420658111572
aF0.982111930847168
aF1.7195420265197754
aF0.9525530338287354
aF1.6094999313354492
aF0.6151580810546875
aF0.5721158981323242
aF1.0849721431732178
aF0.5719521045684814
aF0.2893218994140625
aF0.518726110458374
aF0.4512979984283447
aF0.4890270233154297
aF0.5516021251678467
aF1.1693871021270752
aF0.6392691135406494
aF0.5615739822387695
aF1.1328821182250977
aF0.32230687141418457
aF0.5675499439239502
aF0.6639609336853027
aF0.4882068634033203
aF1.1442670822143555
aF0.7138609886169434
aF0.4930908679962158
aF1.6299121379852295
aF0.6361079216003418
aF1.2701709270477295
aF1.7275969982147217
aF0.5155739784240723
aF0.31395697593688965
aF0.9097800254821777
aF0.6784958839416504
aF0.2625608444213867
aF1.2267038822174072
aF0.524320125579834
aF1.2964379787445068
aF0.7794849872589111
aF0.2595069408416748
aF0.6704690456390381
aF1.0988118648529053
aF1.0010290145874023
aF0.35930514335632324
aF0.6137151718139648
aF1.0940799713134766
aF1.1119449138641357
aF0.43348217010498047
aF1.0042400360107422
aF0.8853318691253662
aF0.7927379608154297
aF0.6835827827453613
aF0.8528499603271484
aF0.5769798755645752
aF1.5325140953063965
aF0.675199031829834
aF0.7394161224365234
aF0.7136468887329102
aF0.410646915435791
aF0.9983999729156494
aF0.6842889785766602
aF2.757504940032959
aF0.5243940353393555
aF0.6051020622253418
aF0.4533500671386719
aF0.8762152194976807
aF0.48520994186401367
aF1.2053301334381104
aF0.8253262042999268
aF1.7042701244354248
aF1.484565019607544
aF1.878093957901001
aF0.9188518524169922
aF0.6716241836547852
aF1.2939579486846924
aF0.3956320285797119
aF1.216547966003418
aF1.1138231754302979
aF1.8418290615081787
aF0.6455750465393066
aF1.085434913635254
aF0.9481229782104492
aF1.8460869789123535
aF0.6721889972686768
aF2.0165209770202637
aF1.3894200325012207
aF0.36736011505126953
aF0.5220308303833008
aF0.762718915939331
aF1.3935370445251465
asg7
(lp45
F1.4301060015818787
aF2.1917788753325844
aF2.1495508942740433
aF0.6401962408304593
aF0.262799466264173
aF1.409250817998502
aF0.33599244476635043
aF1.557509184207573
aF2.4909371247438727
aF1.7676714962279596
aF1.2172662273033965
aF1.129304630555305
aF1.863675717877756
aF3.0895755787976995
aF0.5276939855828932
aF2.1164036357285867
aF0.16993412142437433
aF1.2369297746165122
aF1.649016534202743
aF1.8180386087142109
aF0.19182294257526553
aF0.7437187627971167
aF1.3303982517810957
aF1.3628512767020242
aF0.7176980982287493
aF3.528934216452705
aF1.8373621467134202
aF2.100576684466952
aF1.1187384835320249
aF0.16457160298176254
aF1.3384378472989538
aF0.906762405975434
aF1.5225478787977387
aF0.3385147259968303
aF0.24568737024066886
aF2.1310243706666756
aF2.670518347105567
aF2.0782417370053277
aF0.476828361600626
aF1.6210771398567636
aF1.1693924613546505
aF2.278151056711578
aF1.1319018515282688
aF1.4627512508255307
aF0.3129854105769564
aF0.44811972419278023
aF0.9946587019211293
aF0.3702106609288571
aF2.4378746841163927
aF1.7664394322482337
aF1.0674159553475417
aF2.1654879448327824
aF1.87051778433617
aF1.3507537597470511
aF1.0013334473752917
aF0.8707092302194296
aF1.0440665912524276
aF2.5864873923452647
aF2.2115006524032954
aF1.9999769585109501
aF0.6852022538452524
aF0.03576936728879279
aF1.1696413264978762
aF1.2932138390899872
aF1.3886167833800196
aF1.1595304158856528
aF1.2237410795806636
aF1.5343686978185616
aF0.2058908654993333
aF0.40788635708249543
aF0.23982124644587863
aF3.0763345264716144
aF0.43921289100369343
aF1.3284844176393857
aF1.3859494332753624
aF1.9553887923972
aF1.7101889359065552
aF0.7228482891628603
aF0.6727096194269999
aF0.29895193513065327
aF1.6920075515570994
aF3.306090523757089
aF0.41888293250730835
aF1.7282187263040152
aF0.43556627716374746
aF1.0415847160571021
aF1.2103700011711978
aF1.0162274056283174
aF2.244005799340252
aF1.064896545820225
aF2.0983253848746344
aF1.7385947648284958
aF1.7754070762143903
aF1.2019799105958295
aF1.3050845770612878
aF2.0864088123537856
aF0.20866072434119706
aF1.4396931408115183
aF0.17597968363724018
aF1.0867418022992001
asg9
(lp46
sg11
(lp47
ssS'BGMR'
p48
(dp49
g3
(lp50
I00
aI01
aI00
aI01
aI01
aI01
aI01
aI00
aI00
aI00
aI01
aI00
aI01
aI00
aI01
aI01
aI01
aI01
aI00
aI01
aI01
aI01
aI01
aI00
aI01
aI01
aI00
aI01
aI00
aI01
aI01
aI01
aI01
aI00
aI01
aI00
aI01
aI00
aI00
aI01
aI01
aI00
aI01
aI00
aI01
aI00
aI01
aI00
aI01
aI01
aI01
aI01
aI00
aI01
aI01
aI01
aI00
aI01
aI01
aI01
aI01
aI00
aI01
aI01
aI01
aI00
aI01
aI00
aI01
aI00
aI01
aI01
aI01
aI00
aI01
aI01
aI00
aI01
aI01
aI01
aI00
aI00
aI00
aI01
aI01
aI01
aI01
aI00
aI01
aI01
aI01
aI01
aI01
aI00
aI01
aI00
aI01
aI01
aI01
aI01
asg5
(lp51
F0.7303571701049805
aF1.7264890670776367
aF2.136819839477539
aF1.4745521545410156
aF1.3413259983062744
aF2.0847439765930176
aF0.8058829307556152
aF3.5552289485931396
aF2.0766708850860596
aF1.4701979160308838
aF2.942816972732544
aF1.450073003768921
aF1.0896790027618408
aF1.9011330604553223
aF1.1082780361175537
aF0.5473620891571045
aF0.838763952255249
aF2.684900999069214
aF2.241406202316284
aF0.768125057220459
aF1.6099519729614258
aF1.4854810237884521
aF1.253528118133545
aF1.9687449932098389
aF1.4121639728546143
aF2.5508999824523926
aF1.3270950317382812
aF1.941399097442627
aF1.5557711124420166
aF1.2872209548950195
aF1.6807289123535156
aF0.5276238918304443
aF1.6882050037384033
aF1.3729801177978516
aF2.6318390369415283
aF1.0183830261230469
aF2.671403169631958
aF1.6654620170593262
aF1.2999520301818848
aF1.3401031494140625
aF0.6469340324401855
aF0.9666450023651123
aF1.8817338943481445
aF1.713866949081421
aF0.4874868392944336
aF1.819714069366455
aF2.749701976776123
aF2.095062017440796
aF2.0221078395843506
aF1.5189130306243896
aF1.4009480476379395
aF0.6458561420440674
aF0.8075189590454102
aF0.7215700149536133
aF0.495711088180542
aF2.275485038757324
aF2.0992300510406494
aF1.3659288883209229
aF1.5143651962280273
aF0.8310351371765137
aF0.7426319122314453
aF2.3889079093933105
aF1.1121959686279297
aF1.2794389724731445
aF1.579150915145874
aF1.6624069213867188
aF3.0094211101531982
aF2.622396945953369
aF0.8274600505828857
aF1.6553189754486084
aF3.0896599292755127
aF2.0529909133911133
aF0.7919189929962158
aF1.4040777683258057
aF0.590954065322876
aF0.9368431568145752
aF3.138922929763794
aF0.8629090785980225
aF1.7000079154968262
aF0.9382398128509521
aF1.733808994293213
aF1.6993231773376465
aF2.2406179904937744
aF2.10420298576355
aF1.2842941284179688
aF1.0512030124664307
aF1.510775089263916
aF2.3203420639038086
aF1.3380780220031738
aF1.0382959842681885
aF1.4785699844360352
aF1.3176360130310059
aF2.292428970336914
aF1.4220168590545654
aF0.8619289398193359
aF0.9225640296936035
aF1.0520298480987549
aF1.151628017425537
aF0.8694078922271729
aF2.0595669746398926
asg7
(lp52
F2.09110444217586
aF2.2465576116855885
aF3.1025065728225742
aF0.7750455139365929
aF1.2006184527171941
aF1.3945038046985783
aF0.33507118817435905
aF4.2782237100841405
aF8.291779141533176
aF4.17607331772184
aF1.2662962226257228
aF8.783577074776371
aF1.915524791960842
aF3.432452671896262
aF0.4956718351866492
aF1.9988651321831403
aF0.33819517316836156
aF1.2418010473972307
aF2.870761636096809
aF1.8070662511588689
aF0.6912518589645172
aF0.743561287181436
aF3.5955871793665586
aF7.0760816597077225
aF0.7210722638442074
aF3.593989152528427
aF6.867710426180638
aF2.3599537413097202
aF4.5550240009384595
aF0.1645716029817628
aF1.3487997418854751
aF1.0014550857387388
aF1.6505714438915062
aF5.057427823504194
aF0.9507194542931775
aF12.515965676502862
aF2.57688161024473
aF2.0326544437987892
aF1.2243375211635876
aF2.3518828058243435
aF1.1658896715926905
aF4.4450309650956275
aF2.2644960382374233
aF7.799250059787377
aF0.6632722551049591
aF0.39636171564971934
aF1.0003377179871877
aF0.4689628142241735
aF2.441634690676657
aF1.8682219674222598
aF1.4653656088378357
aF2.029573105899066
aF3.134813707421718
aF1.3722064887172063
aF1.0497286410918665
aF1.0492278524784906
aF3.0780778759675673
aF2.576370153738978
aF2.958636609833273
aF1.8795749162461237
aF0.45513609474299715
aF4.271209557210756
aF1.1666820955926822
aF2.6173263953582153
aF1.38508410688214
aF8.203165203087373
aF1.8769590309064157
aF2.109697474242976
aF0.21143910714170613
aF1.510437564533217
aF0.7374441285263459
aF3.1495261491223143
aF0.8177151143377448
aF1.9192360613366755
aF2.277718144514789
aF1.9215083489401592
aF2.9384592204816937
aF0.8515551927886094
aF0.8494460887402298
aF0.32342954437036164
aF2.314150714707285
aF3.513630708789692
aF3.2796666875306735
aF1.9566108243320754
aF0.4458750480395355
aF1.0129535273286396
aF2.4286063704415337
aF2.640241652045134
aF2.3467455530530525
aF1.5718129670864525
aF3.4591964318971913
aF1.3716217282004095
aF1.6951529727693562
aF10.277066341198456
aF0.9025666278605441
aF9.246876417521031
aF0.5420395522821323
aF1.4383305482432978
aF0.10304164651704868
aF1.1131957551624823
asg9
(lp53
sg11
(lp54
ssS'BGMR_PCA'
p55
(dp56
g3
(lp57
I00
aI00
aI01
aI01
aI00
aI00
aI00
aI01
aI00
aI01
aI00
aI01
aI00
aI00
aI00
aI00
aI01
aI01
aI01
aI00
aI00
aI00
aI01
aI01
aI00
aI00
aI00
aI01
aI01
aI00
aI00
aI00
aI00
aI00
aI00
aI00
aI00
aI01
aI00
aI01
aI00
aI01
aI00
aI00
aI00
aI00
aI00
aI01
aI01
aI01
aI01
aI00
aI00
aI01
aI00
aI00
aI01
aI00
aI00
aI00
aI00
aI00
aI00
aI00
aI00
aI01
aI00
aI01
aI01
aI01
aI00
aI01
aI01
aI00
aI00
aI00
aI01
aI00
aI00
aI00
aI00
aI00
aI00
aI01
aI00
aI00
aI01
aI00
aI00
aI00
aI01
aI00
aI00
aI01
aI01
aI00
aI01
aI01
aI00
aI00
asg5
(lp58
F2.225490093231201
aF0.7217469215393066
aF1.6293740272521973
aF1.1643750667572021
aF3.26042103767395
aF1.203908920288086
aF1.323173999786377
aF1.2019999027252197
aF2.252577066421509
aF1.0864660739898682
aF0.8992471694946289
aF0.8993721008300781
aF1.3960928916931152
aF1.645745038986206
aF3.752190113067627
aF1.8483209609985352
aF1.723149061203003
aF1.8004729747772217
aF1.4548399448394775
aF1.5978260040283203
aF1.011795997619629
aF0.9051849842071533
aF0.9160189628601074
aF0.9770171642303467
aF2.470078945159912
aF1.0786349773406982
aF0.8896579742431641
aF1.6483311653137207
aF1.1932010650634766
aF2.4042630195617676
aF1.3151381015777588
aF0.8794429302215576
aF1.651252031326294
aF1.2574760913848877
aF0.9928109645843506
aF0.7732090950012207
aF1.319962978363037
aF0.8718039989471436
aF1.8007230758666992
aF0.831550121307373
aF3.3244850635528564
aF1.641322135925293
aF0.5907368659973145
aF1.2615408897399902
aF1.5852429866790771
aF2.148859977722168
aF1.880316972732544
aF0.89609694480896
aF0.5621390342712402
aF0.4553358554840088
aF1.0797059535980225
aF1.3720779418945312
aF1.562446117401123
aF1.0323870182037354
aF2.1179909706115723
aF1.7957510948181152
aF1.8121328353881836
aF1.035170078277588
aF0.9293699264526367
aF1.6136260032653809
aF1.1000640392303467
aF2.6098101139068604
aF1.5043020248413086
aF1.503528118133545
aF1.9623570442199707
aF1.7296500205993652
aF1.4617071151733398
aF0.719163179397583
aF2.1378021240234375
aF1.923624038696289
aF1.2329809665679932
aF2.496223211288452
aF2.089556932449341
aF1.609834909439087
aF1.6089088916778564
aF0.8914480209350586
aF0.3164839744567871
aF2.394965171813965
aF1.6164319515228271
aF2.200839042663574
aF1.7917680740356445
aF0.9692461490631104
aF1.9219090938568115
aF1.1610169410705566
aF1.6983051300048828
aF0.8302087783813477
aF1.7648911476135254
aF1.7323129177093506
aF1.5385379791259766
aF1.3646230697631836
aF0.5509309768676758
aF2.2565839290618896
aF1.5469300746917725
aF1.3361890316009521
aF1.1441760063171387
aF1.103050947189331
aF1.9672398567199707
aF0.7488398551940918
aF2.0731451511383057
aF1.3964259624481201
asg7
(lp59
F5.340913719645052
aF3.0467911467217306
aF2.319057821745864
aF0.9588410694227316
aF4.081694939704716
aF4.2755474101067685
aF1.4461903217647065
aF2.4645664675510357
aF7.94089123684319
aF2.363786492492462
aF2.6567906685376057
aF1.1680702471956526
aF4.346616805743468
aF5.28958017295746
aF3.6888080258661073
aF6.209625365242574
aF1.8407859731223766
aF1.2674408461762707
aF1.692692530466565
aF2.491178715877676
aF6.034719527255536
aF2.756959838624697
aF1.3094147998015742
aF2.2863440268356876
aF6.591544554915249
aF7.4664494641718635
aF3.026251363194863
aF2.091229955098478
aF1.244467570915341
aF2.3117430487278465
aF4.729640213633567
aF11.19341844858089
aF4.273041031261329
aF7.74240431573582
aF3.4336461068421515
aF2.599139819676886
aF9.542228022468434
aF2.038182631628543
aF4.605440598233579
aF1.7584957090788271
aF18.344670911922908
aF2.2757907980865024
aF1.1820881367421985
aF2.743276176586058
aF3.536330992044725
aF8.919723329785343
aF17.269286648609498
aF1.1981703032102118
aF2.5554620224994946
aF1.7780491929188669
aF1.2962438797316707
aF5.529919622155586
aF6.729393619422393
aF1.3441009205774903
aF4.034622482534017
aF4.221028121604947
aF1.4047681405413672
aF7.750161385997924
aF2.4972868917501314
aF4.191719826774634
aF0.640625688118211
aF15.073598291614626
aF12.157727579057358
aF9.19834906652314
aF11.566025758241455
aF1.2402005662114732
aF1.881418132759989
aF1.6347590578229687
aF2.139369163840211
aF0.7416524257342757
aF5.916434543133683
aF3.288966255935634
aF0.5164329868266381
aF7.443072130505173
aF9.930495032758254
aF9.643668016188231
aF1.8306383923726637
aF6.392194386466577
aF9.714062488126066
aF6.969945705668992
aF13.230354574958007
aF2.928213803391336
aF4.585825615602887
aF2.355214738957983
aF3.4777731675546266
aF1.3806850585224293
aF1.8818297059751226
aF1.4000006590128475
aF11.036473901213695
aF6.024103799586892
aF2.2713023399593504
aF3.772746176127448
aF2.968832153101126
aF1.3295377492418046
aF0.7771785871931592
aF1.8081019288435536
aF0.20592287954140304
aF1.630502274873917
aF3.3388842423138625
aF16.15514890033053
asg9
(lp60
sg11
(lp61
ss.