(dp0
S'GPR    '
p1
(dp2
S'successes'
p3
(lp4
I00
aI01
aI01
aI01
aI01
aI01
aI00
aI00
aI00
aI01
aI01
aI00
aI01
aI01
aI00
aI01
aI01
aI01
aI01
aI01
aI01
aI01
aI01
aI01
aI00
aI01
aI00
aI01
aI00
aI01
aI00
aI01
aI00
aI00
aI01
aI01
aI00
aI00
aI00
aI01
aI01
aI00
aI00
aI00
aI01
aI01
aI01
aI00
aI01
aI01
aI01
aI00
aI00
aI01
aI01
aI01
aI01
aI01
aI01
aI01
aI00
aI01
aI00
aI01
aI01
aI01
aI00
aI01
aI01
aI01
aI00
aI00
aI01
aI00
aI01
aI01
aI00
aI01
aI01
aI01
aI00
aI01
aI01
aI01
aI01
aI01
aI01
aI01
aI00
aI00
aI00
aI00
aI01
aI01
aI01
aI00
aI00
aI01
aI01
aI01
asS'comp_times'
p5
(lp6
F2.5852699279785156
aF1.5391108989715576
aF2.9727962017059326
aF0.8468799591064453
aF2.2485339641571045
aF1.3831770420074463
aF1.9873409271240234
aF2.401546001434326
aF3.7560508251190186
aF1.8123159408569336
aF2.96014404296875
aF1.7176940441131592
aF1.6776909828186035
aF4.389343023300171
aF1.9690210819244385
aF2.0376060009002686
aF1.9616458415985107
aF1.738175868988037
aF1.7508699893951416
aF1.4513099193572998
aF1.8347349166870117
aF1.6769611835479736
aF1.0674540996551514
aF0.7209279537200928
aF1.2123010158538818
aF1.4122841358184814
aF2.64314603805542
aF0.931549072265625
aF3.006139039993286
aF1.8620879650115967
aF1.3188910484313965
aF1.3621900081634521
aF2.1207780838012695
aF3.0742321014404297
aF1.2755608558654785
aF1.613281011581421
aF2.2162721157073975
aF1.869847059249878
aF3.9269421100616455
aF3.5153589248657227
aF1.4477930068969727
aF1.6170737743377686
aF1.0146369934082031
aF1.5434889793395996
aF0.9891140460968018
aF1.756814956665039
aF1.201503038406372
aF1.6826660633087158
aF1.6944870948791504
aF1.5577380657196045
aF1.591433048248291
aF2.297562837600708
aF2.1927809715270996
aF2.478327989578247
aF1.3179349899291992
aF0.5536439418792725
aF1.0587530136108398
aF0.5389108657836914
aF1.6062428951263428
aF2.2416090965270996
aF0.7215390205383301
aF1.0167858600616455
aF1.8232510089874268
aF0.5522680282592773
aF1.0807900428771973
aF1.3096668720245361
aF1.4130949974060059
aF0.7864198684692383
aF1.2228529453277588
aF0.8574352264404297
aF1.329211950302124
aF0.9703881740570068
aF1.5735371112823486
aF0.8828980922698975
aF0.48204898834228516
aF1.2029099464416504
aF3.0247111320495605
aF1.4611999988555908
aF0.7894859313964844
aF1.0979418754577637
aF0.8723158836364746
aF1.7507038116455078
aF1.4573478698730469
aF0.8326549530029297
aF0.7825939655303955
aF1.1754438877105713
aF0.9708530902862549
aF1.5074810981750488
aF1.3096861839294434
aF0.960601806640625
aF1.4313640594482422
aF1.6583850383758545
aF1.0313539505004883
aF1.0268828868865967
aF1.8104729652404785
aF1.1017179489135742
aF3.223957061767578
aF0.9933879375457764
aF1.2726540565490723
aF1.4090440273284912
asS'costs'
p7
(lp8
F3.623532700438734
aF1.9775053010086774
aF2.426280018475767
aF0.8342638030104556
aF0.29524250657264256
aF1.3872050663356201
aF1.3904776159127075
aF3.543368384322146
aF2.9991889642550524
aF1.7247946856643108
aF1.5141749124577637
aF3.098323060791523
aF1.8876543816587732
aF2.9207347093502145
aF1.3800239936915115
aF1.9982457396247424
aF0.21620504562519233
aF1.371225402009273
aF2.195406174240928
aF2.1213505448931196
aF0.18122667198813197
aF0.7968598544735669
aF1.4379216739074723
aF1.3632679224818558
aF2.153236014287576
aF5.024920605908069
aF3.2248205075179017
aF2.137872744790639
aF2.1512535620100186
aF0.4484270959895071
aF1.4786671547244046
aF0.9676361588848909
aF4.453065598420191
aF2.042960036326892
aF0.38840390137027114
aF3.161256994679357
aF3.389546151578212
aF2.7305326588566983
aF1.2250273319331144
aF1.7774864887622106
aF1.1833311457627866
aF3.166731861950539
aF2.09683493724937
aF3.350905848383504
aF0.4521421212213731
aF0.689839464541723
aF1.000659476249826
aF0.7613235353350782
aF2.754855729285472
aF1.7663095304430585
aF1.0754232974458933
aF2.169402469765652
aF5.166091156524935
aF1.4858614700232844
aF1.0007648154220996
aF0.8619103168349231
aF1.0461679175640544
aF2.5701674256698
aF2.0803952642556833
aF1.8580091827238752
aF0.5514246224665893
aF0.04726128807747115
aF8.896947465717103
aF1.377490742928351
aF1.3856937246412788
aF1.2262597088091243
aF1.465105631356019
aF1.5288528056218245
aF0.21291282590120375
aF0.41597154672176023
aF0.8189658398608763
aF3.8383591470939926
aF0.9177674608108746
aF4.5608446168458405
aF1.3839698251459749
aF1.954222733696811
aF2.9667669409492436
aF0.7702063733020301
aF0.6501395183469639
aF0.3328782096825951
aF2.5074408470026093
aF2.3442476959131198
aF0.4982259980876021
aF1.915875591803907
aF0.501940736820019
aF1.0049537830044915
aF1.2337031595091612
aF1.333584575642688
aF2.663148820593784
aF4.101998415238963
aF3.5936866861302947
aF3.2159218331984976
aF2.4122295004566507
aF1.5849854228390248
aF0.5916067320087113
aF1.7514369553725913
aF2.5496876383277116
aF1.5373099737513154
aF0.11511241377357494
aF1.1855897187731068
asS'func_evals'
p9
(lp10
sS'qp_solves'
p11
(lp12
ssS'NN      '
p13
(dp14
g3
(lp15
I00
aI01
aI01
aI01
aI01
aI00
aI00
aI01
aI00
aI00
aI00
aI00
aI01
aI01
aI00
aI00
aI01
aI01
aI00
aI01
aI00
aI01
aI00
aI00
aI00
aI00
aI00
aI00
aI00
aI01
aI00
aI01
aI01
aI00
aI01
aI01
aI00
aI00
aI01
aI00
aI00
aI00
aI01
aI01
aI01
aI01
aI01
aI00
aI01
aI01
aI01
aI01
aI00
aI01
aI00
aI01
aI01
aI01
aI01
aI01
aI00
aI00
aI00
aI01
aI01
aI01
aI00
aI01
aI00
aI01
aI01
aI00
aI00
aI01
aI01
aI00
aI01
aI01
aI01
aI00
aI01
aI01
aI01
aI01
aI01
aI01
aI01
aI00
aI00
aI00
aI01
aI00
aI01
aI00
aI01
aI00
aI01
aI01
aI00
aI00
asg5
(lp16
F3.107609987258911
aF2.6112170219421387
aF3.9896140098571777
aF2.3806469440460205
aF1.939345121383667
aF3.116166830062866
aF1.846606969833374
aF1.806372880935669
aF3.3432059288024902
aF2.5841281414031982
aF2.7726709842681885
aF2.7532711029052734
aF2.7975549697875977
aF2.3519530296325684
aF2.1441190242767334
aF3.1514241695404053
aF2.508491039276123
aF1.5559170246124268
aF1.5556719303131104
aF2.228097915649414
aF2.2196149826049805
aF3.0464820861816406
aF1.8487880229949951
aF3.00642991065979
aF1.3721168041229248
aF4.536947965621948
aF1.316464900970459
aF2.530992031097412
aF3.0999951362609863
aF1.1156079769134521
aF3.84464693069458
aF1.0271880626678467
aF1.9012870788574219
aF2.5294079780578613
aF1.7831108570098877
aF2.6464271545410156
aF1.3953449726104736
aF3.5275027751922607
aF3.0879080295562744
aF2.9101598262786865
aF2.0971620082855225
aF1.7549400329589844
aF2.5667269229888916
aF3.8437650203704834
aF1.9452869892120361
aF2.6818599700927734
aF2.1625828742980957
aF2.8343820571899414
aF3.995208978652954
aF4.939611911773682
aF2.2540059089660645
aF2.323848009109497
aF1.9669430255889893
aF2.6639819145202637
aF1.2467339038848877
aF1.004101037979126
aF1.122359037399292
aF0.6544160842895508
aF1.9742951393127441
aF1.8408169746398926
aF0.9312670230865479
aF1.9288461208343506
aF1.7175300121307373
aF0.6426341533660889
aF1.6075639724731445
aF1.082859992980957
aF0.8202569484710693
aF0.7432420253753662
aF0.9065229892730713
aF1.025635004043579
aF1.686669111251831
aF1.2802588939666748
aF0.8087179660797119
aF1.3031229972839355
aF0.428164005279541
aF2.7222299575805664
aF0.819281816482544
aF1.0941641330718994
aF1.1855528354644775
aF2.4489798545837402
aF1.3150179386138916
aF2.106300115585327
aF1.6650469303131104
aF2.5645129680633545
aF0.8453419208526611
aF0.9645569324493408
aF2.4186041355133057
aF0.69964599609375
aF1.3887548446655273
aF1.4289748668670654
aF2.7243261337280273
aF1.0497779846191406
aF1.7286438941955566
aF2.014378070831299
aF2.904059886932373
aF1.0399670600891113
aF1.097795009613037
aF1.143535852432251
aF1.4336521625518799
aF1.858259916305542
asg7
(lp17
F8.18298042137271
aF2.2008223125372885
aF2.2501170845266962
aF0.6774318647372962
aF0.6701566771168717
aF6.588377843231934
aF14.22698507079549
aF4.008908410434282
aF2.9955960609722796
aF1.8422511036671212
aF2.150890213670085
aF7.212494827395068
aF1.8700396086573137
aF2.6465499712554634
aF7.213153398042539
aF2.8428845949749655
aF0.21303300673527367
aF1.2330856492634583
aF8.446342772684822
aF1.8304833170749566
aF2.639017037180189
aF0.7241726491057375
aF5.420970098033607
aF2.77596722708076
aF5.239351245205645
aF9.883820020334207
aF13.554159877284778
aF4.144744639795587
aF7.58548590880769
aF0.164648494534262
aF3.4582610619182823
aF1.238212424111168
aF1.5043423545159653
aF4.58755812140069
aF0.24427985521954484
aF3.2808971001331595
aF9.888529041207322
aF3.7787964331095067
aF1.1860986569133483
aF6.344984199178699
aF2.383160081807797
aF17.496290873945473
aF1.8322145103206924
aF1.7285914680843781
aF0.7233192084177483
aF0.7200677200020733
aF1.36856625733658
aF2.1123825098933398
aF2.446249911513559
aF1.8752504843433973
aF1.8776582633036292
aF3.935902202111002
aF5.92685624967897
aF1.4979303462506899
aF2.414631887123827
aF0.8679745819358723
aF1.1328332675015045
aF2.5737303074732627
aF2.198281033504397
aF2.151030398456674
aF5.326973973636782
aF1.927223937313579
aF21.697527555230987
aF1.3126876344613445
aF1.3870924303153214
aF1.1861295200047148
aF2.573678937934906
aF3.4880379584184036
aF2.138160052100261
aF4.171508805230869
aF0.31446908873878227
aF4.058611652635595
aF4.9987228444071725
aF2.082370453000839
aF1.3837384506870263
aF4.537950460661051
aF1.649528183326568
aF4.549371454784555
aF0.6567817669350426
aF1.3965118419342633
aF1.4530607441524692
aF2.323071267746229
aF0.5401464291760673
aF1.8266402841388865
aF0.3976713763618043
aF1.005787999062361
aF1.9360473719154216
aF4.297494995468799
aF2.8576750665238615
aF4.962438926066053
aF2.7444329273865624
aF8.294974436541514
aF1.9007445771956373
aF7.907483428042259
aF0.8606712815678503
aF3.3172502703792186
aF0.20582305940040985
aF1.4442516296642662
aF7.7410325841301395
aF5.952398650957169
asg9
(lp18
sg11
(lp19
ssS'waypoints'
p20
(dp21
g3
(lp22
I01
aI01
aI01
aI01
aI01
aI01
aI01
aI00
aI01
aI01
aI01
aI01
aI01
aI01
aI01
aI00
aI01
aI01
aI01
aI01
aI01
aI01
aI01
aI01
aI01
aI01
aI01
aI01
aI01
aI01
aI01
aI01
aI01
aI01
aI01
aI01
aI01
aI01
aI01
aI01
aI01
aI01
aI01
aI01
aI01
aI00
aI01
aI01
aI01
aI01
aI01
aI01
aI01
aI01
aI01
aI01
aI01
aI01
aI00
aI01
aI01
aI01
aI01
aI01
aI01
aI01
aI01
aI01
aI01
aI01
aI01
aI01
aI01
aI01
aI01
aI01
aI01
aI01
aI01
aI01
aI00
aI01
aI01
aI01
aI01
aI01
aI01
aI01
aI01
aI01
aI01
aI00
aI01
aI01
aI00
aI00
aI01
aI01
aI01
aI01
asg5
(lp23
F1.6134331226348877
aF2.4134409427642822
aF2.3134520053863525
aF1.311560869216919
aF1.5154688358306885
aF1.2122869491577148
aF1.612393856048584
aF3.014617919921875
aF2.0139570236206055
aF2.514618158340454
aF2.016355037689209
aF0.9109058380126953
aF1.8122360706329346
aF2.5137999057769775
aF3.117262125015259
aF5.120926141738892
aF1.1114270687103271
aF1.6122119426727295
aF1.8150410652160645
aF1.7129199504852295
aF0.6111400127410889
aF1.814945936203003
aF0.6130309104919434
aF0.8135230541229248
aF1.3123080730438232
aF2.3168129920959473
aF1.2128028869628906
aF1.212540864944458
aF2.2149510383605957
aF0.5110781192779541
aF2.516835927963257
aF1.6152429580688477
aF0.9123408794403076
aF1.6132621765136719
aF2.016225814819336
aF1.5129899978637695
aF2.017902135848999
aF2.417686939239502
aF2.5155630111694336
aF2.315216064453125
aF0.7122750282287598
aF0.912438154220581
aF2.7157320976257324
aF2.9170620441436768
aF0.8148908615112305
aF4.221937894821167
aF1.914989948272705
aF1.7167420387268066
aF2.115149974822998
aF0.6144108772277832
aF1.41609787940979
aF1.215771198272705
aF4.1197168827056885
aF0.8139801025390625
aF1.109800100326538
aF1.4145889282226562
aF1.6129710674285889
aF0.9104771614074707
aF3.220273017883301
aF1.912064790725708
aF1.611725091934204
aF0.7109260559082031
aF0.9105329513549805
aF0.7104148864746094
aF0.7105729579925537
aF1.110973834991455
aF2.01322603225708
aF0.8104588985443115
aF0.5093889236450195
aF1.1147840023040771
aF2.2136430740356445
aF2.3144710063934326
aF0.9103429317474365
aF1.5122919082641602
aF0.8117008209228516
aF1.6122758388519287
aF0.7135398387908936
aF1.6127350330352783
aF1.5136640071868896
aF1.3101558685302734
aF3.317451000213623
aF1.5142102241516113
aF1.6135499477386475
aF1.9158949851989746
aF1.1118528842926025
aF0.9131128787994385
aF1.4151310920715332
aF2.212834119796753
aF2.715052843093872
aF1.1119740009307861
aF1.312242031097412
aF1.7213759422302246
aF2.416242837905884
aF1.111541986465454
aF3.0160820484161377
aF2.918044090270996
aF0.5132079124450684
aF1.114159107208252
aF1.7153739929199219
aF3.016787052154541
asg7
(lp24
F1.92581201044261
aF2.0002906742948223
aF2.240378779549394
aF1.0361778113989193
aF0.2549029399087788
aF1.391065623697057
aF8.746534630240133
aF6.084389495582684
aF2.5828998639194434
aF2.8076225796372443
aF1.3720847325152503
aF1.1297866932725646
aF5.279159802347377
aF6.082376824437365
aF0.9049886287499133
aF5.268123442720044
aF0.14110123623195434
aF1.2375993737676776
aF3.007111696567934
aF1.8031443909080078
aF0.18139997394532573
aF0.7495101861484728
aF1.3030265949710091
aF1.3860176974230904
aF0.712711646257115
aF3.6177048372938017
aF1.8077351238942012
aF2.106812933631206
aF1.2645763756723616
aF0.1645716029817875
aF4.319405583892855
aF0.9133964662874383
aF1.5717686811674274
aF0.640378512734983
aF0.16051296681339602
aF2.1187853448782206
aF4.774626281701351
aF2.159431920551497
aF3.663336982230842
aF3.36802045529313
aF1.163161200120129
aF2.277226988607489
aF2.3147557894637045
aF1.5120170576303738
aF0.3114251511918411
aF1.1902517817769451
aF0.9980858086823632
aF0.34913490519045537
aF2.435913450547537
aF1.7663842268133596
aF1.0677546793040775
aF2.2210919473074444
aF2.2496462300958218
aF1.3299744172849322
aF1.0023985012804844
aF1.0125699470338791
aF1.0607964820024998
aF2.5796460263237506
aF6.603757596213016
aF1.8689505703362084
aF0.45813142801506035
aF0.03744134131515595
aF1.1377567463130327
aF1.290854244473255
aF1.3867063713789098
aF1.2788854370819753
aF1.2876296864400707
aF1.6806243933443177
aF0.211372599693449
aF0.7741686700696968
aF0.28098158487398134
aF3.1244438277923963
aF0.44014242203077614
aF1.7175215062896332
aF1.3902952416023973
aF1.858929742968224
aF1.6620426505851553
aF0.7193924926763473
aF0.6585341736687135
aF6.941641595821062
aF5.158838981541182
aF2.255249946378953
aF0.4268120221150688
aF3.154110527739512
aF0.2513955628112846
aF1.01187735515871
aF1.2102379710119753
aF3.3502899193826425
aF2.4427349278486203
aF1.1360695784948431
aF2.1481139713913784
aF5.0213014542502705
aF1.7679134237916616
aF1.2141430714576156
aF11.332104313974433
aF2.2072184647455657
aF0.20582852987964545
aF1.444004079630345
aF2.3398879937352626
aF0.9787488289084127
asg9
(lp25
sg11
(lp26
ssS'ensemble'
p27
(dp28
g3
(lp29
I01
aI01
aI01
aI01
aI01
aI01
aI01
aI01
aI01
aI01
aI01
aI01
aI01
aI01
aI00
aI01
aI01
aI01
aI01
aI01
aI01
aI01
aI01
aI01
aI01
aI01
aI01
aI01
aI01
aI01
aI01
aI01
aI01
aI01
aI01
aI01
aI01
aI01
aI01
aI01
aI01
aI01
aI01
aI01
aI01
aI01
aI01
aI01
aI01
aI01
aI01
aI01
aI00
aI01
aI01
aI01
aI01
aI01
aI01
aI01
aI01
aI01
aI01
aI01
aI01
aI01
aI01
aI01
aI01
aI01
aI01
aI01
aI01
aI01
aI01
aI01
aI01
aI01
aI01
aI01
aI01
aI01
aI01
aI01
aI01
aI01
aI01
aI01
aI01
aI01
aI01
aI00
aI01
aI01
aI01
aI00
aI01
aI01
aI01
aI01
asg5
(lp30
F2.3133909702301025
aF1.8139917850494385
aF3.415314197540283
aF0.509943962097168
aF0.6097447872161865
aF1.0099549293518066
aF1.2125730514526367
aF1.9137051105499268
aF2.2128591537475586
aF1.8123209476470947
aF2.4136250019073486
aF0.912585973739624
aF1.5112719535827637
aF2.713921070098877
aF3.920665979385376
aF2.213587999343872
aF1.111151933670044
aF1.2132937908172607
aF2.0131049156188965
aF1.7147951126098633
aF0.7107799053192139
aF1.6126091480255127
aF0.6121699810028076
aF0.9116330146789551
aF1.1117501258850098
aF1.6126551628112793
aF1.312446117401123
aF1.1131749153137207
aF1.8132030963897705
aF0.4119729995727539
aF2.015449047088623
aF1.1137471199035645
aF1.1143300533294678
aF3.0159900188446045
aF1.5128769874572754
aF1.9139468669891357
aF3.115996837615967
aF2.3173038959503174
aF2.6177451610565186
aF3.9193930625915527
aF0.8139870166778564
aF0.8147499561309814
aF2.016273021697998
aF2.717710018157959
aF0.712785005569458
aF2.015148878097534
aF1.215090036392212
aF1.4163880348205566
aF1.8147430419921875
aF0.5126368999481201
aF1.5161139965057373
aF1.5167360305786133
aF4.219527959823608
aF0.8153579235076904
aF1.324286937713623
aF1.113511085510254
aF1.4129550457000732
aF0.7094650268554688
aF1.8136351108551025
aF1.4111781120300293
aF1.8119299411773682
aF0.6095178127288818
aF1.310533046722412
aF0.7127079963684082
aF0.7108950614929199
aF1.2128469944000244
aF1.9131219387054443
aF0.9097189903259277
aF0.5089321136474609
aF1.010901927947998
aF1.5136120319366455
aF3.0172150135040283
aF1.5135650634765625
aF2.7147839069366455
aF0.6115238666534424
aF1.3142509460449219
aF1.1155328750610352
aF1.3119959831237793
aF1.2117221355438232
aF1.7162880897521973
aF1.6121399402618408
aF1.513988971710205
aF2.012782096862793
aF1.3146729469299316
aF1.2114100456237793
aF1.012209177017212
aF1.3148698806762695
aF2.0147061347961426
aF1.7143430709838867
aF1.1126718521118164
aF1.5144648551940918
aF2.2142789363861084
aF1.6126949787139893
aF2.1175858974456787
aF2.0207748413085938
aF2.114387035369873
aF0.5115959644317627
aF1.216120958328247
aF1.1142170429229736
aF1.9147138595581055
asg7
(lp31
F1.1218787884357222
aF1.9775053010086774
aF2.426280018475767
aF0.6052272123702921
aF0.25629839858593084
aF1.3836739758086856
aF0.221863674224882
aF1.8665402705863565
aF2.5348688660520606
aF1.6489694980351237
aF1.2077416972578248
aF1.124584703729052
aF2.325155662180541
aF2.6465499712554634
aF5.8406233726140036
aF2.2921236557791267
aF0.15393535258564736
aF1.3076542998094949
aF1.8607706712731866
aF2.1213505448931196
aF0.1830075308206108
aF0.7430314758841792
aF1.3030263106258826
aF1.363279566221703
aF0.7164638486815408
aF5.024920605908069
aF1.7589289627015925
aF2.140901205027366
aF1.2303497796416434
aF0.16457160298176057
aF1.1965198725181296
aF0.9153644913966081
aF1.5522473886387782
aF0.5088450632353584
aF0.38840390137027114
aF3.161256994679357
aF2.5391328426896105
aF2.015546455227751
aF3.021434855682992
aF1.7774864887622106
aF1.163174815253966
aF2.2768017013139246
aF1.3141682703092579
aF1.4566363262195638
aF0.31142774462961836
aF0.689839464541723
aF1.0025423798430644
aF0.3410273984639615
aF2.4441360076385688
aF1.7663799533567144
aF1.0680909050796321
aF2.0299589043521733
aF2.4720495976406496
aF1.3295293173504323
aF1.0006312864883473
aF0.8619103168349231
aF1.0439778292564306
aF2.5757291549886334
aF2.045586758357368
aF1.8436876407478813
aF0.4553897966100422
aF0.03745774797067863
aF1.1289781900957279
aF1.2916398281184285
aF1.3854138806775278
aF1.2262597088091243
aF1.316237446991489
aF1.5417119306814093
aF0.21135581620586524
aF0.5643571189309063
aF0.23532636935039136
aF3.1947813804683083
aF0.42499049073769235
aF2.082370453000839
aF1.383486750744589
aF1.8995597015787626
aF1.6687076388472275
aF0.7308358705466101
aF0.6501395183469639
aF0.3328782096825951
aF1.4530607441524692
aF2.3442476959131198
aF0.4982259980876021
aF1.915875591803907
aF0.501940736820019
aF1.0065887172259194
aF1.209942830252145
aF1.0203898492576282
aF2.3996117559104317
aF1.174647371095547
aF2.097841098589516
aF3.2159218331984976
aF2.4122295004566507
aF1.5849854228390248
aF0.5942583752455505
aF1.7661978366789663
aF0.2058244638605438
aF1.4893668079665254
aF0.11530583861275474
aF1.3979304665479206
asg9
(lp32
sg11
(lp33
ssS'STD    '
p34
(dp35
g3
(lp36
I00
aI01
aI00
aI01
aI01
aI01
aI01
aI01
aI01
aI01
aI01
aI01
aI00
aI00
aI00
aI00
aI01
aI01
aI01
aI01
aI01
aI01
aI01
aI01
aI01
aI00
aI01
aI01
aI01
aI01
aI01
aI01
aI01
aI01
aI01
aI00
aI01
aI00
aI00
aI00
aI01
aI01
aI01
aI01
aI01
aI00
aI01
aI01
aI01
aI01
aI01
aI01
aI00
aI01
aI01
aI01
aI01
aI01
aI01
aI01
aI01
aI01
aI01
aI01
aI01
aI01
aI01
aI01
aI01
aI01
aI01
aI00
aI01
aI00
aI01
aI01
aI01
aI01
aI01
aI01
aI01
aI00
aI00
aI00
aI01
aI01
aI01
aI01
aI00
aI01
aI01
aI00
aI01
aI01
aI01
aI00
aI01
aI01
aI01
aI00
asg5
(lp37
F2.600774049758911
aF2.080871105194092
aF1.836888074874878
aF0.23520517349243164
aF0.38173890113830566
aF0.7185060977935791
aF0.9036920070648193
aF1.5876858234405518
aF1.831428050994873
aF1.5163350105285645
aF2.0281319618225098
aF0.57753586769104
aF2.0504238605499268
aF1.9778289794921875
aF2.469259023666382
aF1.3331568241119385
aF0.8838469982147217
aF0.9344348907470703
aF1.6388530731201172
aF1.6240451335906982
aF0.3801908493041992
aF1.413672924041748
aF0.3610050678253174
aF0.8597970008850098
aF0.8627569675445557
aF2.799138069152832
aF1.0638670921325684
aF0.9111189842224121
aF1.5535049438476562
aF0.16289305686950684
aF1.6891050338745117
aF0.8309178352355957
aF0.7902929782867432
aF2.7470650672912598
aF1.5258369445800781
aF1.975466012954712
aF2.769946813583374
aF1.9524898529052734
aF1.5400090217590332
aF1.4683630466461182
aF0.4666280746459961
aF0.5859851837158203
aF1.7002999782562256
aF2.3167850971221924
aF0.429440975189209
aF6.066953897476196
aF0.9424698352813721
aF1.1440329551696777
aF1.4514868259429932
aF0.24851202964782715
aF1.2812860012054443
aF1.2311980724334717
aF3.9036900997161865
aF0.4995560646057129
aF1.247117042541504
aF0.6955749988555908
aF1.2931978702545166
aF0.5014019012451172
aF1.0951259136199951
aF1.564291000366211
aF1.1868031024932861
aF0.29802894592285156
aF0.5565290451049805
aF0.3610401153564453
aF0.3887910842895508
aF0.8234598636627197
aF1.2423460483551025
aF0.5439119338989258
aF0.2597830295562744
aF1.1825909614562988
aF1.5889601707458496
aF0.7168159484863281
aF0.6635348796844482
aF2.734691858291626
aF0.4342799186706543
aF1.172245979309082
aF0.42639684677124023
aF0.7619509696960449
aF0.9264380931854248
aF1.2211618423461914
aF2.6670570373535156
aF1.3586080074310303
aF0.764307975769043
aF0.9642958641052246
aF1.1829540729522705
aF0.5809800624847412
aF0.720242977142334
aF1.2304351329803467
aF3.58381986618042
aF0.71551513671875
aF0.7350168228149414
aF0.5596649646759033
aF0.9660701751708984
aF1.1848809719085693
aF1.5535359382629395
aF0.8974709510803223
aF0.31673502922058105
aF0.7170619964599609
aF0.6574649810791016
aF1.2698659896850586
asg7
(lp38
F1.0716447857703768
aF1.9334320523591424
aF3.19114514801563
aF0.6052272123702921
aF0.25629839858593084
aF1.3836739758086856
aF0.221863674224882
aF1.8665402705863565
aF2.5348688660520606
aF1.6489694980351237
aF1.2077416972578248
aF1.124584703729052
aF3.298449374168541
aF2.3893457292010303
aF0.38960444056123056
aF1.9453712345217384
aF0.15393535258564736
aF1.3076542998094949
aF1.8607706712731866
aF1.9435174780867974
aF0.1830075308206108
aF0.7430314758841792
aF1.3030263106258826
aF1.3626676492275258
aF0.7164638486815408
aF4.576486404201669
aF1.7589289627015925
aF2.140901205027366
aF1.2303497796416434
aF0.16457160298176057
aF1.1965198725181296
aF0.9153644913966081
aF1.5522473886387782
aF0.5088450632353584
aF0.20944500878635758
aF2.298597084693932
aF2.5391328426896105
aF2.1657033579557057
aF0.5918097777646053
aF2.1741508519860764
aF1.163174815253966
aF2.276801701313915
aF1.3141682703092579
aF1.4566363262195638
aF0.31142774462961836
aF0.5967442043287275
aF1.0025423798430644
aF0.3410273984639615
aF2.4441360076385688
aF1.7663799533567144
aF1.0680909050796321
aF2.0299589043521733
aF2.4720495976406496
aF1.3295293173504323
aF1.0055811139753528
aF0.8787682903802639
aF1.0618980559317526
aF2.5795324101742394
aF2.045586758357368
aF1.8436876407478813
aF0.4553897966100422
aF0.03745774797067863
aF1.1289781900957279
aF1.2916398281184285
aF1.3854138806775278
aF1.1443307716440205
aF1.316237446991489
aF1.5417119306814093
aF0.21135581620586524
aF0.4014582982575407
aF0.23532636935039136
aF2.994562383156699
aF0.42499049073769235
aF2.9464711646882855
aF1.3863912619066918
aF1.8995597015787626
aF1.6687076388472275
aF0.7308358705466101
aF0.6553342662811056
aF0.2990519253506598
aF1.5522653017966694
aF3.69674343877107
aF0.7043867366399086
aF2.045063808274854
aF0.3811445931570462
aF1.0065887172259194
aF1.209942830252145
aF1.0203898492576282
aF4.814960650680098
aF1.1718108823300397
aF2.097841098589516
aF1.4013484323532626
aF1.6868017453981603
aF1.2716284766720607
aF0.6069431040450354
aF2.217076124859205
aF0.2058244638605438
aF1.4893668079665254
aF0.11530583861275474
aF0.9647148037154522
asg9
(lp39
sg11
(lp40
ssS'GPR_PCA'
p41
(dp42
g3
(lp43
I01
aI01
aI00
aI01
aI01
aI01
aI00
aI01
aI00
aI00
aI01
aI00
aI01
aI00
aI00
aI01
aI01
aI01
aI01
aI01
aI00
aI00
aI01
aI01
aI00
aI00
aI00
aI01
aI01
aI01
aI00
aI01
aI00
aI00
aI00
aI00
aI01
aI00
aI00
aI00
aI01
aI00
aI00
aI01
aI01
aI00
aI01
aI00
aI01
aI01
aI01
aI01
aI00
aI01
aI01
aI01
aI01
aI01
aI00
aI01
aI00
aI01
aI00
aI01
aI01
aI01
aI00
aI01
aI01
aI01
aI01
aI00
aI01
aI01
aI01
aI01
aI00
aI01
aI01
aI01
aI00
aI01
aI00
aI01
aI00
aI00
aI01
aI01
aI01
aI00
aI01
aI00
aI01
aI01
aI01
aI00
aI00
aI01
aI01
aI01
asg5
(lp44
F3.2277421951293945
aF1.7395148277282715
aF4.114921808242798
aF1.6401619911193848
aF1.6577439308166504
aF1.9983320236206055
aF1.966036081314087
aF3.4516470432281494
aF3.8569860458374023
aF1.429589033126831
aF3.1922810077667236
aF2.288862943649292
aF1.3011479377746582
aF4.16557502746582
aF2.0687310695648193
aF1.915658950805664
aF1.6530818939208984
aF1.583400011062622
aF3.239192008972168
aF1.684783935546875
aF2.709602117538452
aF1.7629749774932861
aF0.869379997253418
aF0.6398251056671143
aF1.3440380096435547
aF1.478990077972412
aF2.044327974319458
aF1.6457929611206055
aF2.1774790287017822
aF1.2500958442687988
aF1.1529359817504883
aF1.5744400024414062
aF2.698859930038452
aF2.063199996948242
aF1.055293083190918
aF1.2272050380706787
aF2.924806833267212
aF1.8240501880645752
aF2.679482936859131
aF1.7701630592346191
aF1.7125160694122314
aF1.8525679111480713
aF1.3515961170196533
aF2.8912229537963867
aF0.8588929176330566
aF2.784351110458374
aF2.0009758472442627
aF1.835801124572754
aF1.8185639381408691
aF1.3039319515228271
aF1.857395887374878
aF1.3995518684387207
aF3.7956888675689697
aF1.6222200393676758
aF1.104712963104248
aF0.6790978908538818
aF1.7387311458587646
aF0.4228501319885254
aF1.4823739528656006
aF1.0884170532226562
aF0.63702392578125
aF0.9174759387969971
aF2.3642427921295166
aF0.529210090637207
aF1.0839118957519531
aF1.3898160457611084
aF1.0822830200195312
aF0.855536937713623
aF1.321763038635254
aF0.6985740661621094
aF2.1747348308563232
aF1.00543212890625
aF1.5652329921722412
aF1.4665751457214355
aF0.3795919418334961
aF0.9142849445343018
aF1.5407040119171143
aF1.5677478313446045
aF0.8730480670928955
aF1.4080469608306885
aF1.45054292678833
aF1.0970549583435059
aF1.0822360515594482
aF2.434868097305298
aF0.558290958404541
aF2.0298380851745605
aF0.9098138809204102
aF1.9754130840301514
aF1.5098259449005127
aF1.0763499736785889
aF1.7359280586242676
aF1.0464351177215576
aF1.1906390190124512
aF1.188683032989502
aF1.016319990158081
aF1.5020668506622314
aF2.416965961456299
aF0.8610730171203613
aF1.2169032096862793
aF1.201918125152588
asg7
(lp45
F1.847101946921317
aF1.822214629316916
aF2.446233618791146
aF0.8969642431432159
aF0.4001054379010985
aF1.669509482524155
aF0.832804338429135
aF1.6385533280592337
aF4.709501245507357
aF2.415051163462299
aF1.3943281872791047
aF1.8999709568169123
aF2.325155662180541
aF4.885249914681051
aF1.4007021126873729
aF2.2921236557791267
aF0.1447162345429247
aF1.2519127421101492
aF1.8936329346378737
aF1.8409916924997085
aF2.0076748313766224
aF0.8837394329978671
aF1.43784458932059
aF1.363279566221703
aF1.9170312754049534
aF3.981798259128541
aF3.615286682386055
aF2.095304248074669
aF1.5211548768790195
aF0.16457160299404275
aF1.2141114486144367
aF0.9991932738110428
aF3.5726944241367384
aF1.5619845783747828
aF0.8610824629665099
aF4.597350595330828
aF2.62712300240299
aF3.653765235222758
aF0.7542683568733676
aF3.5089633179191773
aF1.1638852801866195
aF3.6932915716909758
aF2.46475860073332
aF1.8056477946555771
aF0.658365734867954
aF2.6354467957921304
aF0.9967412612894551
aF1.0202402237645507
aF2.5312379831723972
aF1.7663204331093008
aF1.0713283632557145
aF2.0154726816745883
aF2.6705524722058906
aF2.080697923545113
aF1.0006312864883473
aF0.8655066246400122
aF1.045238620437703
aF2.5757291549886334
aF2.4131815122572955
aF1.9003366239097563
aF0.6426920103025522
aF0.04868723233129352
aF7.337635428266177
aF1.4269794751097782
aF1.384878890420207
aF1.1757955068394421
aF1.9206589864863777
aF1.7930558858594838
aF0.20587855516841685
aF0.5643571189309063
aF0.3953208650552937
aF4.126738862081856
aF0.4802581467458538
aF2.4121987343045266
aF1.383486750744589
aF2.184824914941588
aF2.9432805629906267
aF0.9059550955443263
aF0.6282174159930155
aF0.4652458318442265
aF3.296530797837303
aF2.3946646159007563
aF2.981097644398262
aF1.8508417888022217
aF0.4741709717929956
aF1.8552724184536329
aF1.3830340051286776
aF1.2076718750425792
aF2.275363446556599
aF2.049622976238127
aF2.8057620717183407
aF2.452848634752108
aF2.148522969544789
aF1.5823747033833648
aF0.5942583752455505
aF1.7661978366789663
aF3.083925335483248
aF1.4268889198389765
aF0.11476769016589917
aF1.3979304665479206
asg9
(lp46
sg11
(lp47
ssS'BGMR'
p48
(dp49
g3
(lp50
I00
aI01
aI00
aI00
aI00
aI01
aI01
aI00
aI00
aI00
aI01
aI00
aI00
aI00
aI00
aI00
aI01
aI00
aI00
aI01
aI00
aI01
aI00
aI01
aI01
aI00
aI00
aI01
aI00
aI01
aI01
aI01
aI01
aI00
aI01
aI00
aI01
aI01
aI01
aI00
aI01
aI00
aI00
aI00
aI01
aI00
aI00
aI01
aI01
aI00
aI01
aI01
aI00
aI01
aI00
aI01
aI01
aI01
aI00
aI01
aI00
aI01
aI01
aI01
aI01
aI00
aI00
aI01
aI00
aI01
aI01
aI01
aI00
aI01
aI01
aI01
aI01
aI01
aI00
aI00
aI00
aI01
aI00
aI01
aI01
aI01
aI01
aI00
aI00
aI00
aI01
aI00
aI01
aI00
aI00
aI00
aI01
aI01
aI01
aI01
asg5
(lp51
F3.6157350540161133
aF1.4558219909667969
aF2.343317985534668
aF1.9793381690979004
aF2.6382761001586914
aF1.698444128036499
aF1.6065618991851807
aF2.973473072052002
aF2.4757637977600098
aF2.44096302986145
aF2.502856969833374
aF1.3990199565887451
aF2.258648157119751
aF3.5169270038604736
aF3.202759027481079
aF2.277769088745117
aF3.387807846069336
aF2.1747379302978516
aF1.9535770416259766
aF1.7212800979614258
aF4.281444072723389
aF2.3344838619232178
aF2.5070669651031494
aF3.0736098289489746
aF2.1450459957122803
aF2.2762749195098877
aF2.2103800773620605
aF3.1681251525878906
aF2.45361590385437
aF3.1553850173950195
aF3.31245493888855
aF1.0434801578521729
aF2.224031925201416
aF3.7401790618896484
aF3.83674693107605
aF2.3218441009521484
aF3.7274348735809326
aF2.700324058532715
aF2.3571929931640625
aF2.7955150604248047
aF1.7400388717651367
aF1.6818737983703613
aF1.1414721012115479
aF3.328903913497925
aF1.0894079208374023
aF2.5854339599609375
aF1.2954511642456055
aF4.515667915344238
aF2.645340919494629
aF3.0418429374694824
aF1.3803791999816895
aF2.248908042907715
aF1.6542670726776123
aF1.5739569664001465
aF1.0477337837219238
aF1.1825621128082275
aF0.8729841709136963
aF1.5690960884094238
aF1.2649831771850586
aF2.9744009971618652
aF1.4482240676879883
aF1.2876451015472412
aF3.0818071365356445
aF0.9663732051849365
aF0.9261040687561035
aF1.1726129055023193
aF1.1883800029754639
aF1.0348930358886719
aF1.2690181732177734
aF2.0194971561431885
aF2.4086971282958984
aF2.9287869930267334
aF1.8821818828582764
aF1.3034000396728516
aF0.4078328609466553
aF1.5472750663757324
aF0.9500648975372314
aF1.4903278350830078
aF1.1358411312103271
aF1.9064350128173828
aF0.7991268634796143
aF1.7389640808105469
aF2.014725923538208
aF3.1889560222625732
aF1.3480160236358643
aF2.706312894821167
aF1.0375018119812012
aF2.0873358249664307
aF2.2515029907226562
aF1.5049469470977783
aF2.39247989654541
aF0.9742040634155273
aF1.2787909507751465
aF2.304260015487671
aF1.6807169914245605
aF1.5006310939788818
aF1.579582929611206
aF0.8336789608001709
aF1.175544023513794
aF1.7371890544891357
asg7
(lp52
F7.658235246631594
aF5.870565990119192
aF4.599346421232583
aF5.857325348426508
aF1.2268716457408548
aF4.080732581870068
aF1.2540929695269296
aF3.441861006173414
aF3.092577164981546
aF3.063893778549967
aF1.355366403984822
aF7.626346439045143
aF3.8272295703317267
aF3.230080233153275
aF1.168844177253505
aF9.258849478833413
aF0.4739987193192345
aF2.0347629821472926
aF6.117578491605468
aF1.8206131248932245
aF1.9008482384085603
aF1.0643578594386462
aF5.300456621672852
aF1.3622590717086596
aF0.7221798547148982
aF3.9732146196153404
aF3.303233007591617
aF2.0968093995313675
aF3.4853535862625034
aF0.16457160298176504
aF1.4970914711442038
aF2.0931893831553205
aF1.5683989735163522
aF5.35702723276039
aF0.6393938499561248
aF3.558232516083939
aF2.768645933742427
aF2.1315930813923356
aF3.021434855682992
aF5.93158188863048
aF1.7080424787348942
aF3.273068356640562
aF12.424892647288644
aF2.062804691703911
aF0.311741172955454
aF3.4714461290093417
aF3.2124636434040545
aF0.9670515467811529
aF2.4937258345679307
aF8.345883856279968
aF10.632979769178608
aF2.697856605962936
aF8.659481003666924
aF1.519153604718112
aF2.413039041711562
aF1.1374517557276136
aF1.0439778292564306
aF2.5672542096216002
aF3.2052430594834043
aF1.8318140884420269
aF8.257586738445191
aF0.03631385594308804
aF2.587407113877498
aF1.5351013077686408
aF1.384544420634318
aF5.655153682233901
aF5.691708395969656
aF3.0764975986761653
aF3.2397594683851905
aF1.1881506200564225
aF0.29006426174529476
aF3.1947813804683083
aF2.312015549139122
aF1.5280929029503372
aF1.383668243084528
aF3.0099483059630874
aF5.647569629890655
aF0.7361465722399471
aF6.3855072428399255
aF1.4063901892205737
aF1.7782476550406319
aF2.370642377948344
aF2.0306289537044373
aF1.6776110766404417
aF0.7410030526915004
aF1.2100741438305151
aF1.2095445655108223
aF1.8080327630099737
aF5.03489471073483
aF5.170436836812878
aF3.561588618483878
aF9.004103094897967
aF1.9006778358446688
aF9.773221047897742
aF4.25574757796835
aF3.727997608733499
aF1.04238324579071
aF1.4256479763405046
aF0.11197710535832923
aF6.002189417784762
asg9
(lp53
sg11
(lp54
ssS'BGMR_PCA'
p55
(dp56
g3
(lp57
I01
aI01
aI00
aI01
aI00
aI01
aI01
aI01
aI00
aI00
aI01
aI00
aI01
aI00
aI00
aI00
aI01
aI00
aI00
aI01
aI00
aI01
aI00
aI01
aI01
aI00
aI00
aI01
aI00
aI01
aI01
aI01
aI01
aI00
aI01
aI00
aI00
aI01
aI00
aI00
aI00
aI01
aI01
aI01
aI01
aI00
aI01
aI00
aI01
aI00
aI01
aI00
aI00
aI01
aI01
aI01
aI01
aI01
aI00
aI01
aI00
aI00
aI00
aI00
aI01
aI00
aI00
aI01
aI00
aI01
aI01
aI00
aI00
aI00
aI01
aI01
aI01
aI01
aI00
aI00
aI00
aI01
aI00
aI01
aI01
aI00
aI01
aI00
aI01
aI01
aI01
aI00
aI01
aI00
aI00
aI00
aI01
aI01
aI01
aI00
asg5
(lp58
F2.030550956726074
aF1.6302239894866943
aF5.714646100997925
aF1.7840778827667236
aF2.997894048690796
aF3.750900983810425
aF2.279127836227417
aF2.36330509185791
aF2.5550179481506348
aF3.5964269638061523
aF2.6738498210906982
aF1.4561610221862793
aF2.0924010276794434
aF4.0051820278167725
aF3.609442949295044
aF1.8036139011383057
aF2.3431458473205566
aF1.3492510318756104
aF1.610785961151123
aF2.4148218631744385
aF3.6175639629364014
aF3.4607489109039307
aF2.570019006729126
aF3.317354202270508
aF2.405704975128174
aF2.3353710174560547
aF3.2094788551330566
aF1.717782974243164
aF2.508230209350586
aF2.0790839195251465
aF3.1379241943359375
aF2.7748560905456543
aF2.2797958850860596
aF4.9034998416900635
aF1.780177116394043
aF2.1978111267089844
aF3.9778499603271484
aF2.0419697761535645
aF2.6409318447113037
aF2.9756569862365723
aF2.722048044204712
aF1.867656946182251
aF3.1434450149536133
aF3.4824609756469727
aF1.5456008911132812
aF2.370776891708374
aF2.1685431003570557
aF1.8857190608978271
aF3.584669828414917
aF2.8500540256500244
aF1.4405138492584229
aF2.9609179496765137
aF3.54290509223938
aF1.7387328147888184
aF2.759829044342041
aF2.326794147491455
aF0.9397480487823486
aF1.589768886566162
aF1.0965180397033691
aF2.844773054122925
aF1.5758390426635742
aF0.7908799648284912
aF1.3694322109222412
aF1.8422670364379883
aF1.4226210117340088
aF1.8290910720825195
aF1.9418611526489258
aF1.0947270393371582
aF1.283519983291626
aF2.015117883682251
aF2.4871509075164795
aF1.9147579669952393
aF1.5339891910552979
aF2.017148017883301
aF1.1298019886016846
aF1.3573780059814453
aF1.6702141761779785
aF1.7452940940856934
aF1.9947261810302734
aF2.4388298988342285
aF2.2857940196990967
aF2.945496082305908
aF1.31591796875
aF1.7283098697662354
aF1.416337013244629
aF2.9141530990600586
aF1.212292194366455
aF1.896186113357544
aF1.6346659660339355
aF1.1111388206481934
aF1.8687639236450195
aF0.973181962966919
aF1.8648791313171387
aF3.076214075088501
aF2.039669990539551
aF1.1322870254516602
aF1.834825038909912
aF0.8971672058105469
aF1.1649658679962158
aF2.043492078781128
asg7
(lp59
F1.1218787884357222
aF5.814773037840523
aF3.574647610962425
aF0.7114742523291003
aF4.416452516838697
aF1.401964235816688
aF1.2538894394539943
aF5.15054921770041
aF3.066946621905187
aF1.7660534192770172
aF1.3622162771593382
aF7.62593364708352
aF1.9163776209438432
aF3.2305297495203926
aF5.8406233726140036
aF7.481818216226897
aF0.33266392173568426
aF8.512212508186638
aF7.158115640563481
aF1.9226537078721597
aF4.677998146558736
aF0.7182551112692427
aF7.1804191276187455
aF1.3623453367240643
aF0.7184399680124861
aF3.9730215462482668
aF6.1138349147498
aF9.081329573774298
aF3.4853535655505916
aF0.7057409507728667
aF1.2405155225118525
aF2.6345708212262773
aF1.568398973505783
aF6.3065974777155045
aF0.24798578668402393
aF4.487705169754614
aF3.419444680232836
aF2.015546455227751
aF1.3917980536212446
aF5.914551258752563
aF2.3073617393982153
aF2.3502227023847047
aF2.127814723128534
aF1.9927303654865005
aF0.31142793765876736
aF4.430042507257906
aF0.9963933470562716
aF9.029744451682607
aF2.700248526056507
aF9.28624192691136
aF10.632979769197608
aF2.6076590890885765
aF5.015144878268381
aF1.344904773019336
aF1.3702617365126333
aF0.8627601972552984
aF1.0439794900282784
aF2.5957356813812718
aF3.2495089898510523
aF1.8535114399127297
aF8.252998221532518
aF18.18044441588174
aF11.882910698332228
aF3.3914061601471337
aF1.383930435421689
aF6.147847327401834
aF5.033661858037733
aF3.0764975986842655
aF3.23522872457725
aF1.1949230200086893
aF0.2998957185469736
aF2.7770906699160274
aF2.7554990951724836
aF2.4172316380400107
aF1.3841361538352697
aF2.2589197024943495
aF5.460939483782789
aF0.7263406678982911
aF8.302256627192413
aF1.3934452860300457
aF3.2428495728828524
aF2.349382162129504
aF4.79720387473113
aF2.127660745036545
aF0.7235164244476855
aF4.036991128642754
aF1.2105008999628064
aF2.3979785144576504
aF2.3996117559104317
aF1.0436035489740978
aF2.155168222286163
aF9.065114453406792
aF2.0876653943915193
aF1.8804410047148512
aF4.188034215327295
aF3.6217855391088456
aF0.2058330707136526
aF1.4256479763408179
aF0.11546714955070547
aF3.501578436049425
asg9
(lp60
sg11
(lp61
ss.