(dp0
S'GPR    '
p1
(dp2
S'successes'
p3
(lp4
I00
aI00
aI01
aI01
aI01
aI01
aI01
aI01
aI01
aI01
aI01
aI01
aI01
aI01
aI00
aI00
aI01
aI01
aI01
aI01
aI01
aI01
aI01
aI01
aI01
aI01
aI01
aI01
aI00
aI01
aI00
aI01
aI01
aI01
aI01
aI01
aI01
aI01
aI01
aI01
aI01
aI01
aI01
aI01
aI01
aI01
aI01
aI01
aI01
aI01
aI01
aI01
aI00
aI01
aI01
aI01
aI01
aI01
aI00
aI01
aI01
aI01
aI01
aI01
aI01
aI01
aI01
aI01
aI01
aI01
aI01
aI01
aI01
aI01
aI01
aI01
aI01
aI01
aI01
aI01
aI01
aI00
aI01
aI01
aI01
aI01
aI01
aI00
aI01
aI01
aI01
aI00
aI01
aI01
aI01
aI00
aI01
aI01
aI01
aI00
asS'comp_times'
p5
(lp6
F7.6225810050964355
aF1.7077651023864746
aF1.336441993713379
aF0.6207518577575684
aF0.26554012298583984
aF0.5411109924316406
aF0.7057089805603027
aF0.9882898330688477
aF0.9558470249176025
aF1.920835018157959
aF0.5712649822235107
aF1.4656829833984375
aF0.966414213180542
aF1.2283351421356201
aF0.7238790988922119
aF1.4011330604553223
aF1.7350130081176758
aF0.738663911819458
aF1.1465518474578857
aF0.716231107711792
aF0.2616000175476074
aF0.8716249465942383
aF0.511725902557373
aF0.33852314949035645
aF0.5947971343994141
aF1.9183430671691895
aF0.756605863571167
aF0.7618391513824463
aF0.9310328960418701
aF0.2666049003601074
aF0.9008240699768066
aF0.3803701400756836
aF0.4110879898071289
aF1.051720142364502
aF0.6151390075683594
aF0.553307056427002
aF1.8684251308441162
aF0.864285945892334
aF1.5681800842285156
aF2.2096779346466064
aF0.8020141124725342
aF0.4797821044921875
aF1.1255810260772705
aF0.7057449817657471
aF0.3941988945007324
aF1.242785930633545
aF0.47165489196777344
aF0.7365360260009766
aF0.7805390357971191
aF0.4017369747161865
aF0.8755350112915039
aF0.4702019691467285
aF1.5280420780181885
aF0.5911622047424316
aF0.5471031665802002
aF0.38446998596191406
aF0.8504829406738281
aF0.824131965637207
aF1.1500840187072754
aF1.6269209384918213
aF1.5706532001495361
aF0.7754991054534912
aF0.9947619438171387
aF0.533221960067749
aF0.85384202003479
aF0.8670101165771484
aF0.8986079692840576
aF0.9501149654388428
aF0.49361705780029297
aF0.8933260440826416
aF1.5189080238342285
aF1.3228750228881836
aF0.5796139240264893
aF0.8522701263427734
aF0.4331789016723633
aF0.9446721076965332
aF1.575246810913086
aF1.7955129146575928
aF1.1241891384124756
aF0.7136940956115723
aF1.5514729022979736
aF1.9535150527954102
aF0.6592950820922852
aF0.5646820068359375
aF0.7575328350067139
aF0.43958497047424316
aF0.8097589015960693
aF0.6338798999786377
aF0.8222930431365967
aF0.72422194480896
aF0.9150261878967285
aF0.5636341571807861
aF0.9116799831390381
aF1.1023399829864502
aF2.019589900970459
aF1.8316450119018555
aF0.3558211326599121
aF0.5100197792053223
aF0.9408621788024902
aF1.061061143875122
asS'costs'
p7
(lp8
F1.1315959759585064
aF2.0599291817606065
aF2.1555354981797215
aF0.6808115923274384
aF0.2558069036406095
aF1.3987305866482176
aF0.21137875502992
aF1.586441951590647
aF2.4429972138649605
aF1.770467604301151
aF1.1964991223198842
aF1.128950491444802
aF2.0140572204681035
aF2.7061804261197864
aF0.3602628609772553
aF2.1312163093389347
aF0.13917562735268374
aF1.2370496076320896
aF1.6462245603617554
aF1.7990407161846595
aF0.18123106739757633
aF0.7296287304541131
aF1.3288259229397534
aF1.3784362902097314
aF0.7315322608681146
aF3.472288493454719
aF1.7891355995962468
aF2.102885362315448
aF1.2355787474871673
aF0.16457670294478824
aF1.2048914698688262
aF0.9103035787494752
aF1.5517780253716076
aF0.35685590024046304
aF0.16277839398086885
aF2.128975457026969
aF2.5324501987501846
aF2.040418902553206
aF0.45313069507024795
aF1.642506328250832
aF1.163995529058324
aF2.29227821692029
aF1.1411807461255974
aF1.4481812263540332
aF0.3120323591475158
aF0.46190478664448614
aF0.9994887512594411
aF0.21072138071797628
aF2.4245783072584173
aF1.7662693063258192
aF1.0673748941460073
aF2.1357261326780286
aF2.13012241762827
aF1.3556491276027225
aF1.0010424956944437
aF0.8964155166683984
aF1.043125440780036
aF2.591056311213147
aF2.275113463795225
aF1.9799454899316822
aF0.45628853813659526
aF0.03596302735924593
aF1.2845697035121049
aF1.313344659674133
aF1.3857566241417252
aF1.2540804664457164
aF1.1961367177037623
aF1.534036864679235
aF0.21446889943675868
aF0.4153845323671907
aF0.22807269412531775
aF3.330230036236519
aF0.43720659192394784
aF1.402253986095266
aF1.3841529945784599
aF1.8666475999348202
aF1.6697209475911112
aF0.7018700038361876
aF0.6389379356542524
aF0.2972001527547935
aF1.5628078171167163
aF3.4001955799301244
aF0.37389272471751434
aF2.0257932168705017
aF0.33298459842464156
aF1.0394260601298262
aF1.2056497956117367
aF1.0244809595791575
aF2.317916830994016
aF1.0501949584047074
aF2.1042828428175637
aF1.7193763144681364
aF1.728462827331561
aF1.1672678642276888
aF0.5410225976598549
aF1.5547096058149432
aF0.20582309819090547
aF1.4296614217934869
aF0.11222768649283556
aF1.0831165690071216
asS'func_evals'
p9
(lp10
sS'qp_solves'
p11
(lp12
ssS'NN      '
p13
(dp14
g3
(lp15
I00
aI00
aI01
aI01
aI01
aI00
aI00
aI00
aI01
aI01
aI01
aI01
aI00
aI00
aI00
aI01
aI01
aI01
aI01
aI01
aI01
aI01
aI00
aI01
aI01
aI00
aI00
aI01
aI00
aI01
aI01
aI01
aI00
aI01
aI01
aI00
aI00
aI01
aI00
aI01
aI01
aI00
aI00
aI01
aI01
aI00
aI01
aI01
aI01
aI01
aI01
aI01
aI00
aI01
aI01
aI01
aI01
aI01
aI01
aI01
aI01
aI01
aI01
aI00
aI01
aI01
aI00
aI01
aI00
aI01
aI01
aI00
aI01
aI01
aI01
aI01
aI01
aI01
aI01
aI00
aI01
aI01
aI01
aI01
aI00
aI01
aI01
aI01
aI01
aI00
aI01
aI00
aI00
aI00
aI00
aI00
aI00
aI01
aI01
aI00
asg5
(lp16
F2.0675930976867676
aF0.4570350646972656
aF0.9942741394042969
aF1.351444959640503
aF0.23701000213623047
aF1.8166141510009766
aF0.40990781784057617
aF1.2789180278778076
aF2.400101900100708
aF0.44318222999572754
aF1.8799018859863281
aF2.7808170318603516
aF0.703758955001831
aF1.5956621170043945
aF0.9268169403076172
aF1.4593241214752197
aF1.1765260696411133
aF0.9291930198669434
aF0.8574209213256836
aF0.7354769706726074
aF1.8114659786224365
aF0.8620929718017578
aF0.7172050476074219
aF1.4324181079864502
aF2.914335012435913
aF2.5644638538360596
aF2.772239923477173
aF2.0092949867248535
aF1.1056458950042725
aF0.6423790454864502
aF1.0772960186004639
aF0.8946051597595215
aF0.8296871185302734
aF1.365868091583252
aF3.538377046585083
aF2.137141227722168
aF1.5446710586547852
aF1.222592830657959
aF1.8707940578460693
aF0.7059118747711182
aF2.6937170028686523
aF1.525846004486084
aF1.2959728240966797
aF1.150439977645874
aF1.0954468250274658
aF1.4319419860839844
aF0.45592188835144043
aF0.31404709815979004
aF1.034114122390747
aF1.056528091430664
aF1.7303860187530518
aF0.6921510696411133
aF0.9620211124420166
aF1.8524441719055176
aF1.9516820907592773
aF1.4014108180999756
aF0.5727059841156006
aF1.5647799968719482
aF1.9282522201538086
aF1.1779508590698242
aF1.0705161094665527
aF1.9866321086883545
aF0.6527950763702393
aF1.8809919357299805
aF0.9935460090637207
aF0.7182769775390625
aF1.8973519802093506
aF0.6642310619354248
aF0.787851095199585
aF0.7020478248596191
aF3.544084072113037
aF1.8933031558990479
aF0.7816131114959717
aF0.9401650428771973
aF0.6977150440216064
aF1.8751730918884277
aF2.982327938079834
aF1.283371925354004
aF0.8025259971618652
aF0.8339288234710693
aF0.9756200313568115
aF2.3185670375823975
aF2.2459311485290527
aF1.7214570045471191
aF0.7833080291748047
aF0.6866998672485352
aF1.0956299304962158
aF1.01603102684021
aF2.0422861576080322
aF2.257863998413086
aF1.858238935470581
aF1.0267388820648193
aF1.5818490982055664
aF1.3425140380859375
aF1.0345799922943115
aF0.7155909538269043
aF0.7763748168945312
aF1.0354430675506592
aF1.8916079998016357
aF1.9414350986480713
asg7
(lp17
F9.936077705791817
aF1.946971339345315
aF5.650764472486886
aF0.6050575529834973
aF3.4306783893498647
aF3.3816566256584695
aF2.7063803421341923
aF3.2710949025411677
aF3.905008700710316
aF5.021795858498122
aF1.3374755599939459
aF1.1338783844570195
aF3.6850397182776744
aF3.7242013923061243
aF2.4526136953093998
aF2.15750754328263
aF0.14081404771839773
aF1.3147829593817761
aF1.6747937309917487
aF1.8026263652824355
aF0.5137156861971595
aF0.7144473307503799
aF1.7455427588377546
aF1.4124317935408595
aF0.7143756649851946
aF9.883820020334207
aF5.890135329904548
aF2.088732825144325
aF3.419271854146932
aF0.164648494534262
aF1.997282196262987
aF1.465303477035791
aF3.2891462016215245
aF1.1649981497562567
aF0.8815582094274916
aF3.133933046539742
aF4.1146210342554
aF2.013277781650042
aF3.7633024666549897
aF1.667026976991874
aF1.1642518504567403
aF4.405858093284701
aF1.7040315923596006
aF1.458845565736721
aF0.7233192084177483
aF1.0435170895054042
aF0.9958871021834148
aF3.7898719448327225
aF2.477869553744517
aF1.7662691213086097
aF1.0694694799738695
aF2.0337217446367695
aF1.885640151810257
aF1.5098433395638031
aF1.0072262246620725
aF1.3189137518893577
aF1.0430955828324007
aF2.5666230758478914
aF2.0689651286083643
aF1.925482795642737
aF0.4563912796857715
aF0.036098575606621115
aF1.2001168720041218
aF3.4453671988559194
aF2.637954475479565
aF2.5948006029775046
aF2.3410407811938354
aF1.6670153970045247
aF2.1612809235154815
aF0.7319571629760082
aF0.5367003279715893
aF7.059816565516076
aF0.45549082747626696
aF2.8282868947525763
aF1.397170641323389
aF2.0816153524154934
aF2.911909859141653
aF0.8461539097268416
aF0.633709484588783
aF2.114435412697117
aF1.4530607441524692
aF2.323071267746229
aF1.0035716447379326
aF1.718496853711107
aF0.8391743472817019
aF1.0398239694481106
aF1.4976427738678832
aF1.739343147825423
aF2.164455869400941
aF5.208073850403359
aF2.070956077749738
aF8.294974436541514
aF4.085216254986264
aF1.5428333028082868
aF1.3549971625552883
aF1.56104972832788
aF1.5521040809781599
aF1.4299037668319958
aF0.11894301443221197
aF5.952398650957169
asg9
(lp18
sg11
(lp19
ssS'waypoints'
p20
(dp21
g3
(lp22
I01
aI01
aI01
aI01
aI01
aI01
aI01
aI00
aI01
aI01
aI01
aI01
aI01
aI01
aI01
aI01
aI01
aI01
aI01
aI01
aI01
aI01
aI01
aI01
aI01
aI01
aI01
aI01
aI01
aI01
aI01
aI01
aI01
aI01
aI01
aI01
aI01
aI01
aI01
aI01
aI01
aI01
aI01
aI01
aI01
aI00
aI01
aI01
aI01
aI01
aI01
aI01
aI01
aI01
aI01
aI01
aI01
aI01
aI00
aI01
aI01
aI01
aI01
aI01
aI01
aI01
aI01
aI01
aI01
aI01
aI01
aI01
aI01
aI01
aI01
aI01
aI01
aI01
aI01
aI01
aI00
aI01
aI01
aI01
aI01
aI01
aI01
aI01
aI01
aI01
aI01
aI00
aI01
aI01
aI00
aI00
aI01
aI01
aI01
aI01
asg5
(lp23
F1.7436349391937256
aF2.4359140396118164
aF1.932318925857544
aF0.5229339599609375
aF1.4379220008850098
aF1.2290229797363281
aF1.7341089248657227
aF2.9310030937194824
aF2.046204090118408
aF2.326996088027954
aF1.733349084854126
aF1.0383200645446777
aF1.430009126663208
aF2.229266881942749
aF2.5581400394439697
aF4.159730911254883
aF1.0264639854431152
aF1.5255320072174072
aF1.6348278522491455
aF1.326582908630371
aF0.5241761207580566
aF1.5298230648040771
aF0.624884843826294
aF1.0326321125030518
aF1.126979112625122
aF1.9299938678741455
aF1.1262750625610352
aF1.031135082244873
aF1.7344231605529785
aF0.6337277889251709
aF2.132838010787964
aF1.3267319202423096
aF0.8253638744354248
aF1.4339141845703125
aF1.6336069107055664
aF1.2336680889129639
aF1.8357360363006592
aF2.0342609882354736
aF2.1349611282348633
aF2.0292210578918457
aF0.8322780132293701
aF0.8259999752044678
aF2.2299020290374756
aF2.335317850112915
aF0.7247381210327148
aF3.643260955810547
aF1.535120964050293
aF1.4281890392303467
aF1.731191873550415
aF0.6316750049591064
aF1.1328730583190918
aF1.0321629047393799
aF2.8334908485412598
aF0.9336709976196289
aF1.1296460628509521
aF1.233712911605835
aF1.7342510223388672
aF1.027918815612793
aF3.2379260063171387
aF2.135148048400879
aF1.7354249954223633
aF0.7268760204315186
aF1.0321791172027588
aF1.029500961303711
aF0.8264861106872559
aF1.329341173171997
aF1.9313619136810303
aF1.0287699699401855
aF0.6256029605865479
aF1.027275800704956
aF2.1368048191070557
aF2.2365942001342773
aF0.9255011081695557
aF1.530339002609253
aF0.82659912109375
aF1.7369039058685303
aF1.0353798866271973
aF2.141171932220459
aF1.529468059539795
aF2.0461480617523193
aF3.437375068664551
aF1.7323939800262451
aF1.7316999435424805
aF1.9357171058654785
aF1.1305389404296875
aF1.0298810005187988
aF1.432271957397461
aF2.2334840297698975
aF2.635935068130493
aF1.2295279502868652
aF1.3299760818481445
aF2.038055896759033
aF2.537414789199829
aF1.2316391468048096
aF5.145015001296997
aF3.0386250019073486
aF0.5234520435333252
aF1.238318920135498
aF2.353210926055908
aF3.2394418716430664
asg7
(lp24
F1.92581201044261
aF2.0002906742948223
aF2.240378779549394
aF0.6052680602120164
aF0.2549029399087788
aF1.391065623697057
aF8.746534630240133
aF9.418323155116342
aF2.5828998639194434
aF2.8076225796372443
aF1.3720847325152503
aF1.1297866932725646
aF5.279159802347377
aF6.082376824437365
aF0.9049886287499133
aF2.123024121372007
aF0.14110123623195434
aF1.2375993737676776
aF3.007111696567934
aF1.8031443909080078
aF0.18139997394532573
aF0.7495101861484728
aF1.3030265949710091
aF1.3860176974230904
aF0.712711646257115
aF3.6177048372938017
aF1.8077351238942012
aF2.106812933631206
aF1.2645763756723616
aF0.1645716029817875
aF4.319405583892855
aF0.9133964662874383
aF1.5717686811674274
aF0.640378512734983
aF0.16051296681339602
aF2.1187853448782206
aF4.774626281701351
aF2.159431920551497
aF3.663336982230842
aF3.36802045529313
aF1.163161200120129
aF2.2772269886074885
aF2.3147557894637045
aF1.5120170576303738
aF0.3114251511918411
aF1.1902517817769451
aF0.9980858086823632
aF0.34913490519045537
aF2.435913450547537
aF1.7663842268133596
aF1.0677546793040775
aF2.2210919473074444
aF2.2496462300958218
aF1.3299744172849322
aF1.0023985012804844
aF1.0125699470338791
aF1.0607964820024998
aF2.5796460263237506
aF6.603757596213016
aF1.8689505703362084
aF0.45813142801506035
aF0.03744134131515595
aF1.1377567463537384
aF1.290854244473255
aF1.3867063713789098
aF1.2788854370819753
aF1.311089692653327
aF1.6806243933443177
aF0.211372599693449
aF0.7741686700696968
aF0.28098158487398134
aF3.1244438277923963
aF0.44014242203077614
aF1.7175215062896332
aF1.3902952416023973
aF1.858929742968224
aF1.6620426505851553
aF0.7193924926763473
aF0.6585341736687135
aF5.849725495956933
aF5.158838981541182
aF2.255249946378953
aF0.4268120221150688
aF3.154110527739512
aF0.2513955628112846
aF1.01187735515871
aF1.2102379710119753
aF3.3502899193826425
aF2.4427349278486203
aF1.1311441655397154
aF2.1481139713913784
aF5.0213014542502705
aF1.7679134237916616
aF1.2141430714576156
aF0.6258800163177524
aF2.2072184647455657
aF0.20582852987964545
aF1.444004079630345
aF2.3398879937352626
aF0.9787488289084127
asg9
(lp25
sg11
(lp26
ssS'ensemble'
p27
(dp28
g3
(lp29
I01
aI01
aI01
aI01
aI01
aI01
aI01
aI01
aI01
aI01
aI01
aI01
aI01
aI01
aI00
aI01
aI01
aI01
aI01
aI01
aI01
aI01
aI01
aI01
aI01
aI01
aI01
aI01
aI01
aI01
aI01
aI01
aI01
aI01
aI01
aI01
aI01
aI01
aI01
aI01
aI01
aI01
aI01
aI01
aI01
aI01
aI01
aI01
aI01
aI01
aI01
aI01
aI00
aI01
aI01
aI01
aI01
aI01
aI01
aI01
aI01
aI01
aI01
aI01
aI01
aI01
aI01
aI01
aI01
aI01
aI01
aI01
aI01
aI01
aI01
aI01
aI01
aI01
aI01
aI01
aI01
aI01
aI01
aI01
aI01
aI01
aI01
aI01
aI01
aI01
aI01
aI00
aI01
aI01
aI01
aI00
aI01
aI01
aI01
aI01
asg5
(lp30
F1.942596197128296
aF1.4275271892547607
aF1.8319330215454102
aF0.520392894744873
aF0.5206308364868164
aF1.139793872833252
aF1.3395111560821533
aF1.931704044342041
aF1.4247870445251465
aF0.9419209957122803
aF1.2262790203094482
aF0.624596118927002
aF0.926206111907959
aF1.5271937847137451
aF3.1535401344299316
aF1.1283180713653564
aF0.8283050060272217
aF1.3360419273376465
aF1.330583095550537
aF1.1248760223388672
aF0.5218160152435303
aF1.2381091117858887
aF0.6223928928375244
aF0.733086109161377
aF0.8253641128540039
aF1.9301018714904785
aF1.0335330963134766
aF1.0316920280456543
aF1.5274169445037842
aF0.434830904006958
aF1.7291901111602783
aF1.5274689197540283
aF0.8280470371246338
aF1.629390001296997
aF2.2360429763793945
aF1.3268702030181885
aF1.82924222946167
aF1.2327308654785156
aF1.837615966796875
aF1.2276959419250488
aF0.726240873336792
aF0.7249720096588135
aF1.1279571056365967
aF1.0346179008483887
aF0.5293409824371338
aF2.0444729328155518
aF1.132889986038208
aF1.0408730506896973
aF1.3320870399475098
aF0.636120080947876
aF0.9305739402770996
aF0.8247451782226562
aF2.835463047027588
aF0.6255660057067871
aF0.7227709293365479
aF0.7265419960021973
aF1.1298949718475342
aF0.7259349822998047
aF1.4292049407958984
aF0.9287300109863281
aF1.2368779182434082
aF0.7309911251068115
aF1.1291050910949707
aF1.0434539318084717
aF1.0323069095611572
aF0.9437899589538574
aF1.3368659019470215
aF1.0287461280822754
aF0.6276359558105469
aF0.9293339252471924
aF1.1277410984039307
aF2.129246950149536
aF1.0334539413452148
aF1.3281748294830322
aF0.725639820098877
aF1.1289520263671875
aF0.9341309070587158
aF1.2294769287109375
aF1.1381340026855469
aF1.339709997177124
aF1.6361842155456543
aF1.1290810108184814
aF1.2318658828735352
aF1.029721975326538
aF1.233666181564331
aF0.728675127029419
aF1.3299641609191895
aF1.736497163772583
aF1.3298358917236328
aF1.0312011241912842
aF0.9274849891662598
aF2.247128963470459
aF1.4374470710754395
aF1.5307741165161133
aF2.1418941020965576
aF2.1359200477600098
aF0.8412721157073975
aF0.9306609630584717
aF1.3458240032196045
aF2.238285779953003
asg7
(lp31
F1.0506916531626482
aF2.298734561743693
aF5.650764472486886
aF0.6052272123702921
aF0.2558069036406095
aF1.3836739758086856
aF0.221863674224882
aF1.4305580049791542
aF2.4573456134987666
aF5.021795858498122
aF1.1964991223198842
aF1.1292122408849716
aF2.034312655875118
aF2.7061804261197864
aF0.38960444056123056
aF1.9318214273133136
aF0.13972811357185794
aF1.3076542998094949
aF1.671845167604223
aF1.8597820808732315
aF0.18123106739757633
aF0.7296287304541131
aF1.3030263106258826
aF1.3784362902097314
aF0.7315322608681146
aF3.472288493454719
aF1.7891355995962468
aF2.140901205027366
aF1.243433422508471
aF0.16457160298176057
aF1.997282196262987
aF0.9150747258082624
aF1.5517780253716076
aF1.1649981497562567
aF0.203430394076145
aF2.130487757281296
aF2.544205834328303
aF2.1210000436579564
aF0.5437018189042221
aF1.667026976991874
aF1.163174815253966
aF2.27680170131384
aF1.1847757559672376
aF1.4513789994287472
aF0.3120323591475158
aF0.3842303363852784
aF0.9994887512594411
aF3.7898719448327225
aF2.4245783072584173
aF1.7663799533567144
aF1.0673748941460073
aF2.157225787895342
aF2.4720495976406496
aF1.3295293173504323
aF1.0010424956944437
aF0.8952711355845862
aF1.1820466846285012
aF2.5842931749758105
aF2.1176227689516276
aF1.9302517282385137
aF0.4563912796857715
aF0.03745774797067863
aF1.1289781900957279
aF1.313344659674133
aF1.3854138806775278
aF2.5948006029775046
aF1.2382532381397873
aF1.534036864679235
aF0.21446889943675868
aF0.584529720945015
aF0.2265945243848062
aF3.330230036236519
aF0.4720455906950019
aF1.4284992106418581
aF1.389237420956375
aF1.8666475999348202
aF1.6697209475911112
aF0.7391040682609425
aF0.7986490108774867
aF0.402352386156588
aF1.6279714020332792
aF2.3557024186052478
aF0.37389272471751434
aF2.0257932168705017
aF0.396573010706215
aF1.0373277676781447
aF1.2061116708943849
aF1.739343147825423
aF2.317916830994016
aF2.1761776357732256
aF2.1042828428175637
aF8.294974436541514
aF1.784186311500181
aF1.489422174626843
aF0.4817856718866169
aF2.0695535730594288
aF0.2058244638605438
aF1.435926292435012
aF0.11222768649283556
aF0.9947141547654609
asg9
(lp32
sg11
(lp33
ssS'STD    '
p34
(dp35
g3
(lp36
I00
aI01
aI00
aI01
aI01
aI01
aI01
aI01
aI01
aI01
aI01
aI01
aI00
aI00
aI00
aI00
aI01
aI01
aI01
aI01
aI01
aI01
aI01
aI01
aI01
aI00
aI01
aI01
aI01
aI01
aI01
aI01
aI01
aI01
aI01
aI00
aI01
aI00
aI00
aI00
aI01
aI01
aI01
aI01
aI01
aI00
aI01
aI01
aI01
aI01
aI01
aI01
aI00
aI01
aI01
aI01
aI01
aI01
aI01
aI01
aI01
aI01
aI01
aI01
aI01
aI01
aI01
aI01
aI01
aI01
aI01
aI00
aI01
aI00
aI01
aI01
aI01
aI01
aI01
aI01
aI01
aI00
aI00
aI00
aI01
aI01
aI01
aI01
aI00
aI01
aI01
aI00
aI01
aI01
aI01
aI00
aI01
aI01
aI01
aI00
asg5
(lp37
F3.3966240882873535
aF1.4433178901672363
aF1.1201679706573486
aF0.15137696266174316
aF0.23685312271118164
aF0.7866230010986328
aF0.5193169116973877
aF1.4842920303344727
aF1.164551019668579
aF1.5870671272277832
aF3.1666150093078613
aF0.35914087295532227
aF2.1609549522399902
aF1.1373870372772217
aF1.4377868175506592
aF1.1706809997558594
aF0.9353971481323242
aF0.5463719367980957
aF0.9546349048614502
aF0.9784848690032959
aF0.23598003387451172
aF0.8207669258117676
aF0.2215430736541748
aF1.218169927597046
aF0.9307408332824707
aF1.577692985534668
aF0.6165359020233154
aF0.6150810718536377
aF0.8853518962860107
aF0.10621809959411621
aF1.758042812347412
aF0.4993419647216797
aF0.46900296211242676
aF2.4077069759368896
aF1.698235034942627
aF1.1399550437927246
aF2.5743629932403564
aF1.5132601261138916
aF1.1424899101257324
aF0.8599669933319092
aF0.28344202041625977
aF0.6241209506988525
aF0.9721839427947998
aF1.2997090816497803
aF0.261883020401001
aF4.669732093811035
aF0.9975869655609131
aF0.6729519367218018
aF0.837507963180542
aF0.1541900634765625
aF1.1682450771331787
aF0.7144830226898193
aF2.22922420501709
aF0.30145907402038574
aF1.307913064956665
aF0.7187209129333496
aF0.9761068820953369
aF0.712263822555542
aF2.5719380378723145
aF0.9187600612640381
aF1.220466136932373
aF0.3235290050506592
aF0.5927689075469971
aF0.3963179588317871
aF0.4220249652862549
aF0.9409959316253662
aF1.2865378856658936
aF0.5729589462280273
aF0.27733802795410156
aF1.2540011405944824
aF0.9308998584747314
aF0.7596578598022461
aF0.6984031200408936
aF1.9885311126708984
aF0.4662749767303467
aF0.8349390029907227
aF0.48610806465148926
aF1.4446511268615723
aF1.5044667720794678
aF1.2719919681549072
aF3.1491198539733887
aF1.422593116760254
aF0.8008899688720703
aF1.3580029010772705
aF1.606827974319458
aF0.6420872211456299
aF0.7604460716247559
aF1.0538630485534668
aF2.645862102508545
aF0.6061599254608154
aF0.7565410137176514
aF0.5891611576080322
aF1.11415696144104
aF1.2269330024719238
aF3.0636491775512695
aF0.9580340385437012
aF0.2483530044555664
aF0.7583780288696289
aF0.7109360694885254
aF2.1548540592193604
asg7
(lp38
F1.0716447857703768
aF1.9334320523591424
aF3.19114514801563
aF0.6052272123702921
aF0.25629839858593084
aF1.3836739758086856
aF0.221863674224882
aF1.8665402705863565
aF2.5348688660520606
aF1.6489694980351237
aF1.2077416972578248
aF1.124584703729052
aF3.298449374168541
aF2.3893457292010303
aF0.38960444056123056
aF1.9453712345217384
aF0.15393535258564736
aF1.3076542998094949
aF1.8607706712731866
aF1.9435174780867974
aF0.1830075308206108
aF0.7430314758841792
aF1.3030263106258826
aF1.3626676492275258
aF0.7164638486815408
aF4.576486404201669
aF1.7589289627015925
aF2.140901205027366
aF1.2303497796416434
aF0.16457160298176057
aF1.1965198725181296
aF0.9153644913966081
aF1.5522473886387782
aF0.5088450632353584
aF0.20944500878635758
aF2.298597084693932
aF2.5391328426896105
aF2.1657033579557057
aF0.5918097777646053
aF2.1741508519860764
aF1.163174815253966
aF2.276801701313915
aF1.3141682703092579
aF1.4566363262195638
aF0.31142774462961836
aF0.5967442043287275
aF1.0025423798430644
aF0.3410273984639615
aF2.4441360076385688
aF1.7663799533567144
aF1.0680909050796321
aF2.0299589043521733
aF2.4720495976406496
aF1.3295293173504323
aF1.0055811139753528
aF0.8787682903802639
aF1.0618980559317526
aF2.5795324101742394
aF2.045586758357368
aF1.8436876407478813
aF0.4553897966100422
aF0.03745774797067863
aF1.1289781900957279
aF1.2916398281184285
aF1.3854138806775278
aF1.1443307716440205
aF1.316237446991489
aF1.5417119306814093
aF0.21135581620586524
aF0.4014582982575407
aF0.23532636935039136
aF2.994562383156699
aF0.42499049073769235
aF2.9464711646882855
aF1.3863912619066918
aF1.8995597015787626
aF1.6687076388472275
aF0.7308358705466101
aF0.6553342662811056
aF0.2990519253506598
aF1.5522653017966694
aF3.69674343877107
aF0.7043867366399086
aF2.045063808274854
aF0.3811445931570462
aF1.0065887172259194
aF1.209942830252145
aF0.9965479726095119
aF4.814960650680098
aF1.174647371095621
aF2.097841098589516
aF1.4013484323532626
aF1.6868017453981603
aF1.2716284766720607
aF0.6069431040450354
aF2.217076124859205
aF0.2058244638605438
aF1.4893668079665254
aF0.11530583861275474
aF0.9647148037154522
asg9
(lp39
sg11
(lp40
ssS'GPR_PCA'
p41
(dp42
g3
(lp43
I01
aI00
aI01
aI01
aI01
aI01
aI01
aI00
aI01
aI01
aI01
aI01
aI01
aI01
aI00
aI00
aI01
aI01
aI01
aI01
aI01
aI01
aI01
aI01
aI01
aI01
aI01
aI01
aI01
aI01
aI00
aI01
aI01
aI01
aI01
aI01
aI01
aI01
aI01
aI01
aI01
aI01
aI01
aI01
aI01
aI01
aI01
aI00
aI01
aI01
aI01
aI01
aI00
aI01
aI01
aI01
aI01
aI01
aI01
aI01
aI00
aI01
aI00
aI01
aI01
aI01
aI01
aI00
aI01
aI01
aI01
aI01
aI01
aI01
aI01
aI01
aI01
aI01
aI01
aI01
aI01
aI00
aI01
aI01
aI01
aI01
aI01
aI00
aI00
aI01
aI01
aI00
aI01
aI01
aI01
aI00
aI01
aI01
aI01
aI00
asg5
(lp44
F0.8990788459777832
aF2.1580259799957275
aF1.249053955078125
aF0.8890249729156494
aF0.5247399806976318
aF0.8503701686859131
aF0.6923809051513672
aF1.2748792171478271
aF0.8122868537902832
aF0.8799779415130615
aF0.8883709907531738
aF1.092702865600586
aF0.6427149772644043
aF1.7109498977661133
aF0.7639100551605225
aF0.9261648654937744
aF0.4503138065338135
aF0.8876280784606934
aF0.8276231288909912
aF0.7969269752502441
aF0.33280014991760254
aF0.80082106590271
aF0.4521751403808594
aF0.6023588180541992
aF1.564682960510254
aF1.8088469505310059
aF0.8056681156158447
aF1.2041890621185303
aF0.899773120880127
aF0.2687680721282959
aF2.381032943725586
aF0.47608399391174316
aF0.5552699565887451
aF1.8332409858703613
aF0.8158910274505615
aF0.3926880359649658
aF1.0855629444122314
aF1.4914600849151611
aF1.1626958847045898
aF1.2442522048950195
aF0.7885110378265381
aF0.5414149761199951
aF0.6666650772094727
aF0.6901280879974365
aF0.48696208000183105
aF1.6672320365905762
aF0.4656069278717041
aF0.6079039573669434
aF0.9165771007537842
aF0.40550804138183594
aF0.5521721839904785
aF0.4602620601654053
aF1.1537449359893799
aF0.8788611888885498
aF0.6878771781921387
aF0.3902931213378906
aF0.6468379497528076
aF0.5796098709106445
aF1.3496758937835693
aF1.8699159622192383
aF0.8724019527435303
aF0.6987941265106201
aF0.8995349407196045
aF0.4501030445098877
aF0.5113670825958252
aF0.6097259521484375
aF0.726884126663208
aF0.961388111114502
aF0.585860013961792
aF1.420069932937622
aF1.5891621112823486
aF2.594633102416992
aF0.6841669082641602
aF0.8515870571136475
aF0.3998680114746094
aF1.1373138427734375
aF1.1945888996124268
aF2.039119005203247
aF1.058089017868042
aF0.8881320953369141
aF1.3743319511413574
aF1.2406680583953857
aF1.0865190029144287
aF0.7951018810272217
aF0.7100250720977783
aF0.3920907974243164
aF0.7785420417785645
aF1.15171217918396
aF1.0613620281219482
aF0.5912690162658691
aF0.9102389812469482
aF0.5602591037750244
aF0.848311185836792
aF1.1159632205963135
aF2.4073660373687744
aF1.2136070728302002
aF0.3603639602661133
aF0.5091860294342041
aF1.2887470722198486
aF1.1909329891204834
asg7
(lp45
F1.0506916531626482
aF1.989218763085054
aF2.198220846016326
aF0.673332305891807
aF0.2650678829301523
aF1.3952263464436152
aF0.21360766568430342
aF1.7019243160026631
aF2.4573456134987666
aF1.759361839735253
aF1.1849953053986901
aF1.1292122408849716
aF2.034312655875118
aF2.4786667958964412
aF0.49698718284691334
aF2.0252807303201656
aF0.13972811357185794
aF1.2385649687248332
aF1.7051758450254084
aF1.8027795012849162
aF0.1812270219999937
aF0.753843267854632
aF1.3279341688684023
aF1.3679105035516719
aF0.7195620795033164
aF3.4684208839741526
aF1.781212315774398
aF2.1094112360387753
aF1.243433422508471
aF0.16458819642512226
aF1.3725699208336857
aF0.9150747258082624
aF1.5141315008662688
aF0.31932748038490677
aF0.15745717458027997
aF2.130487757281296
aF2.544205834328303
aF2.027071757179411
aF0.5437018189042221
aF1.6912177554632801
aF1.1674636475841773
aF2.2910363272424124
aF1.1847757559672376
aF1.452524118598482
aF0.3267614925651024
aF0.3842303363852784
aF1.0080270309340615
aF0.2478600638924769
aF2.4635895202183864
aF1.7663720846658062
aF1.0724460697504083
aF2.157225787895342
aF2.5642367427309503
aF1.353994394862895
aF1.0014175287709381
aF0.8952711355845862
aF1.1820466846285012
aF2.5866194524561092
aF1.9976151747245168
aF1.8818180483905853
aF0.6529056741640619
aF0.039845149151876966
aF1.96508760377064
aF1.2982084678204031
aF1.3857578386032543
aF1.2581044750596897
aF1.2382532381397873
aF1.576832608911195
aF0.20995860893304885
aF0.40750682341265093
aF0.21110427854989394
aF3.240033972181315
aF0.42696166532985513
aF1.4284992106418581
aF1.389237420956375
aF1.8924201675127963
aF1.6696719160496747
aF0.7391040682609425
aF0.6476899941419422
aF0.3019864907743916
aF1.6182371197518275
aF3.574669830434381
aF0.37586179788473556
aF1.7012510076325311
aF0.396573010706215
aF1.0373277676781447
aF1.2061116708943849
aF1.0168363933175006
aF2.4104317766936374
aF1.0513029550041426
aF2.094709457875732
aF1.6635768247240286
aF1.784186311500181
aF1.1791799599093977
aF0.5061680875563359
aF2.0695535730594288
aF0.2058233008010317
aF1.4296384601442522
aF0.13210911692699395
aF1.0410637048987093
asg9
(lp46
sg11
(lp47
ssS'BGMR'
p48
(dp49
g3
(lp50
I01
aI01
aI00
aI01
aI01
aI01
aI00
aI01
aI01
aI01
aI01
aI01
aI01
aI00
aI00
aI01
aI01
aI01
aI01
aI01
aI01
aI01
aI01
aI01
aI01
aI00
aI01
aI01
aI01
aI01
aI00
aI01
aI01
aI01
aI01
aI01
aI00
aI00
aI00
aI01
aI01
aI00
aI01
aI00
aI01
aI01
aI01
aI01
aI01
aI01
aI00
aI00
aI00
aI01
aI01
aI00
aI01
aI01
aI01
aI01
aI01
aI01
aI01
aI00
aI00
aI01
aI01
aI01
aI01
aI01
aI01
aI00
aI01
aI01
aI01
aI00
aI01
aI01
aI01
aI01
aI00
aI01
aI01
aI01
aI01
aI01
aI01
aI00
aI01
aI01
aI01
aI00
aI00
aI00
aI01
aI00
aI01
aI01
aI01
aI01
asg5
(lp51
F3.0776829719543457
aF1.6321940422058105
aF1.3433659076690674
aF0.9419808387756348
aF0.4710969924926758
aF2.001667022705078
aF0.7972488403320312
aF1.522921085357666
aF0.943803071975708
aF1.3062880039215088
aF0.9893670082092285
aF0.6586189270019531
aF3.284393787384033
aF2.741408109664917
aF0.6857609748840332
aF1.1706969738006592
aF1.0374548435211182
aF1.1298019886016846
aF1.3857381343841553
aF0.641200065612793
aF0.33510804176330566
aF1.0109341144561768
aF0.48172593116760254
aF0.8638970851898193
aF0.9334139823913574
aF2.0664968490600586
aF0.495635986328125
aF0.7585539817810059
aF1.1396839618682861
aF0.3828859329223633
aF2.5406410694122314
aF1.4939169883728027
aF0.5075039863586426
aF1.5140109062194824
aF0.5204169750213623
aF0.7443280220031738
aF2.0649280548095703
aF1.4130380153656006
aF1.4408831596374512
aF0.8905119895935059
aF1.517383098602295
aF1.3429830074310303
aF1.7273941040039062
aF0.737311840057373
aF0.6949770450592041
aF1.5259251594543457
aF1.222491979598999
aF0.48998093605041504
aF0.8265440464019775
aF0.3704109191894531
aF1.3753409385681152
aF1.1662518978118896
aF0.5892500877380371
aF0.9515559673309326
aF0.8845138549804688
aF0.8533658981323242
aF0.9843559265136719
aF1.4442131519317627
aF1.8426430225372314
aF0.4721109867095947
aF1.248089075088501
aF0.7466449737548828
aF0.8906350135803223
aF0.9686801433563232
aF1.2714669704437256
aF1.2199671268463135
aF0.8999679088592529
aF0.7953479290008545
aF0.8487279415130615
aF0.9021651744842529
aF0.8015041351318359
aF1.6327698230743408
aF0.7824180126190186
aF0.7944839000701904
aF0.6792960166931152
aF1.4209768772125244
aF0.5094530582427979
aF0.8967568874359131
aF0.616218090057373
aF0.6249768733978271
aF1.293313980102539
aF1.090566873550415
aF0.7884271144866943
aF0.9346349239349365
aF1.3674750328063965
aF0.7659339904785156
aF1.0582258701324463
aF1.1364989280700684
aF1.099635124206543
aF0.9006369113922119
aF1.3766629695892334
aF0.6866919994354248
aF0.9851531982421875
aF0.42360997200012207
aF2.073385000228882
aF1.0788168907165527
aF2.2174339294433594
aF0.7943191528320312
aF0.9945859909057617
aF1.2523818016052246
asg7
(lp52
F0.9697678035236461
aF2.298734561743693
aF4.644409017406355
aF0.8589249220362276
aF0.2546637605181441
aF1.5399848422522167
aF0.3009384830337121
aF1.5486762560560892
aF2.800493676812165
aF1.6377107321591504
aF1.185955570398213
aF1.2086911652688326
aF1.9409038661831342
aF2.628099068949653
aF0.3219103967169334
aF1.9415693176139677
aF0.1459931095448356
aF1.313842757645279
aF1.671845167604223
aF1.8597820808732315
aF0.3565346211498094
aF0.7331285746973527
aF1.3034570753101493
aF1.37416205955915
aF0.7218842694162938
aF4.021819024255407
aF2.077066574892353
aF2.13429628491269
aF1.7666241407921874
aF0.16457160298231635
aF1.141423044138915
aF1.0108803379963
aF1.5040328287338436
aF0.365900008719174
aF0.203430394076145
aF2.324445456131244
aF4.790308283793116
aF2.3996503410698318
aF0.522416802920157
aF1.7160902631290766
aF1.7081438638251112
aF3.3619209936733867
aF1.2358922976139433
aF1.448900517924314
aF0.3623295269506144
aF0.521895451363926
aF1.1490785029516517
aF0.26734662361314643
aF2.4533214976825697
aF1.7681402235949595
aF2.1771973387698513
aF3.87536914091981
aF4.136958012276463
aF1.3401299045082538
aF1.0009689400885726
aF0.9671261176437801
aF1.393206665548467
aF2.5827523655208706
aF2.0285636382746257
aF1.9302517282385137
aF0.455198951755439
aF0.06851356410169625
aF1.2013398569211264
aF3.5784273002837583
aF3.5811855910520674
aF1.4512960556753194
aF1.263719621155597
aF1.5213629532634596
aF0.41034391875890625
aF0.4806801168531188
aF0.2265945243848062
aF3.8391990787168897
aF0.4720455906950019
aF1.4000034009232007
aF1.3836115538245306
aF2.2586945111085996
aF1.896461886101245
aF0.7363857897994995
aF0.7986490108774867
aF0.402352386156588
aF3.6302840659996214
aF2.3557024186052478
aF0.3987338244835077
aF1.8984371810468683
aF0.3164817039065819
aF1.1660138003332747
aF1.5469133857502049
aF1.3149516968341837
aF2.277225203645267
aF2.1761776357732256
aF2.3190204694450482
aF1.7229040500412518
aF3.562809458211858
aF3.227017348644428
aF0.533075461504733
aF2.1900004851413915
aF0.2094158532391919
aF1.8291857128426068
aF0.0984807067990948
aF0.9163826018812979
asg9
(lp53
sg11
(lp54
ssS'BGMR_PCA'
p55
(dp56
g3
(lp57
I01
aI00
aI00
aI01
aI01
aI01
aI01
aI01
aI00
aI01
aI01
aI01
aI00
aI00
aI00
aI01
aI01
aI01
aI01
aI01
aI01
aI01
aI01
aI01
aI00
aI00
aI00
aI01
aI01
aI01
aI00
aI01
aI01
aI01
aI01
aI01
aI00
aI01
aI00
aI01
aI00
aI01
aI01
aI01
aI01
aI01
aI01
aI00
aI01
aI01
aI01
aI01
aI00
aI01
aI01
aI01
aI01
aI01
aI01
aI01
aI01
aI01
aI01
aI00
aI01
aI01
aI01
aI00
aI01
aI01
aI01
aI00
aI01
aI01
aI01
aI00
aI01
aI01
aI01
aI01
aI01
aI01
aI01
aI01
aI01
aI01
aI01
aI01
aI01
aI00
aI01
aI00
aI01
aI01
aI01
aI00
aI01
aI01
aI00
aI01
asg5
(lp58
F1.2261440753936768
aF0.8381390571594238
aF1.543856143951416
aF1.2621839046478271
aF0.5560250282287598
aF0.8679721355438232
aF1.1580932140350342
aF1.347153902053833
aF3.017989158630371
aF1.3071670532226562
aF1.4712250232696533
aF0.6271560192108154
aF2.1391749382019043
aF2.68507719039917
aF0.5149991512298584
aF0.6830000877380371
aF0.8287270069122314
aF1.2028069496154785
aF1.5127270221710205
aF1.0570340156555176
aF0.5195698738098145
aF1.6538200378417969
aF0.3702840805053711
aF1.0231678485870361
aF2.358458995819092
aF1.8767080307006836
aF0.6048181056976318
aF0.6484389305114746
aF1.251206874847412
aF0.4499790668487549
aF1.8450548648834229
aF1.3186821937561035
aF0.45594000816345215
aF2.635930061340332
aF0.7567641735076904
aF1.936830997467041
aF2.804327964782715
aF1.0769109725952148
aF1.9813101291656494
aF0.7723071575164795
aF1.5031700134277344
aF0.7634940147399902
aF1.18110990524292
aF0.5393240451812744
aF0.45578885078430176
aF1.3857009410858154
aF1.7680559158325195
aF0.8440921306610107
aF1.0814611911773682
aF0.31282901763916016
aF2.269516944885254
aF0.9377338886260986
aF1.294159173965454
aF0.49588799476623535
aF1.467113971710205
aF0.8019199371337891
aF0.9870970249176025
aF0.34092092514038086
aF0.8619630336761475
aF0.7874670028686523
aF0.8297491073608398
aF0.9077329635620117
aF0.979949951171875
aF2.163350820541382
aF1.5621731281280518
aF1.2666740417480469
aF0.957982063293457
aF0.4754509925842285
aF0.5431759357452393
aF0.5026419162750244
aF1.612198829650879
aF2.9738588333129883
aF0.9489250183105469
aF1.1016240119934082
aF1.0001771450042725
aF2.657744884490967
aF0.5170350074768066
aF1.5018420219421387
aF1.1425879001617432
aF0.9152510166168213
aF0.9029710292816162
aF1.1595640182495117
aF1.079801082611084
aF0.899183988571167
aF1.3302080631256104
aF0.6182639598846436
aF0.9115428924560547
aF1.4626779556274414
aF1.1129999160766602
aF1.5372700691223145
aF0.7020149230957031
aF0.8534810543060303
aF1.2591869831085205
aF1.3259329795837402
aF0.9307630062103271
aF1.2125790119171143
aF1.7214059829711914
aF0.5010511875152588
aF1.279094934463501
aF1.2699670791625977
asg7
(lp59
F1.0260905359848855
aF3.712157878204665
aF2.5644427694002543
aF0.8891676587356954
aF0.2572202548138137
aF1.3650601161073697
aF0.2153468663217983
aF1.4305580049791542
aF9.625294569991695
aF1.6748010366614008
aF1.305168631311634
aF1.1967776385945705
aF2.501313865246261
aF3.6957575220161907
aF0.33479672627471746
aF1.9318214273133136
aF0.1469678095066002
aF1.38785790427141
aF1.6799890885065814
aF1.819735070654215
aF0.37409418930773153
aF0.7362271683005057
aF1.3367345132436963
aF1.3641811341514063
aF2.257051774800447
aF3.748269059552995
aF2.702211282350742
aF2.086553117728623
aF1.3407307599092138
aF0.16457160298176463
aF2.758503980525009
aF0.9802156288199031
aF1.6064482224039183
aF0.4893355105762108
aF0.2018011815990755
aF2.317252373703003
aF5.2772940885387865
aF2.1210000436579564
aF0.6536664111631737
aF1.83923239878621
aF2.450451814119493
aF2.363439876214518
aF1.190724599433933
aF1.4513789994287472
aF0.4381725748267637
aF0.4266911536260469
aF1.3616344401580913
aF0.2675776894804273
aF2.4238503948485435
aF1.7662692184318745
aF1.1185204873521657
aF2.2173824467963366
aF5.319161510090059
aF1.355112067712361
aF1.304501993309734
aF0.9551216110901118
aF1.0441032884723949
aF2.5842931749758105
aF2.1176227689516276
aF1.9079589745243526
aF0.46517010859126157
aF0.03628982682981345
aF1.3601868109438868
aF3.0477710093399972
aF1.3851459207419252
aF1.1901037932743332
aF1.2537535358491942
aF1.5930153975771553
aF0.20587590473587417
aF0.584529720945015
aF0.37556750598257826
aF11.369699471782091
aF0.4779061517453419
aF1.4607752855050862
aF1.383218487754388
aF2.781221616249244
aF1.7306080139372075
aF1.4763793597732082
aF0.8450258121693544
aF0.3378098903408488
aF1.6279714020332792
aF2.4391144158545366
aF0.48961526708261904
aF1.9634860611940717
aF0.41615061345702326
aF1.158273952250571
aF1.199076525474287
aF1.195724517746873
aF2.3401548181041054
aF3.8005748741252083
aF2.2458052746667367
aF1.7726544037850132
aF1.7952200604958288
aF1.489422174626843
aF0.4817856718866169
aF2.544578611965238
aF0.20611866194111556
aF1.435926292435012
aF0.290600095796489
aF0.9947141547654609
asg9
(lp60
sg11
(lp61
ss.