(dp0
S'NN     '
p1
(dp2
S'successes'
p3
(lp4
I00
aI00
aI00
aI01
aI00
aI01
aI00
aI00
aI01
aI01
aI00
aI01
aI01
aI01
aI01
aI01
aI01
aI01
aI01
aI01
aI00
aI00
aI00
aI01
aI01
aI01
aI00
aI01
aI00
aI00
aI00
aI00
aI01
aI01
aI01
aI01
aI01
aI00
aI01
aI01
aI01
aI01
aI00
aI01
aI01
aI00
aI00
aI01
aI01
aI00
asS'comp_times'
p5
(lp6
F5.819223880767822
aF1.1109609603881836
aF4.89990496635437
aF0.5016558170318604
aF0.9471828937530518
aF10.146404027938843
aF0.8392698764801025
aF2.8507399559020996
aF1.0188448429107666
aF3.2918620109558105
aF7.229660987854004
aF0.4099709987640381
aF0.9890389442443848
aF0.6198570728302002
aF1.2796969413757324
aF0.9015419483184814
aF3.61441707611084
aF1.1069629192352295
aF0.6085209846496582
aF2.2169649600982666
aF9.968163013458252
aF0.9263670444488525
aF6.7085089683532715
aF0.6150448322296143
aF1.662811040878296
aF4.9029271602630615
aF4.41895604133606
aF1.586857795715332
aF2.1311869621276855
aF0.933466911315918
aF5.434714078903198
aF10.163892030715942
aF1.5302679538726807
aF1.0679409503936768
aF0.5091781616210938
aF0.40614891052246094
aF0.7214689254760742
aF1.7117218971252441
aF0.9642879962921143
aF0.9142470359802246
aF0.5864810943603516
aF0.7054200172424316
aF1.251215934753418
aF3.3096141815185547
aF0.9803950786590576
aF1.065593957901001
aF5.744386911392212
aF0.4816708564758301
aF1.0075559616088867
aF3.35133695602417
asS'costs'
p7
(lp8
F0.21881330073527347
aF0.1827626331516715
aF0.07939668953534154
aF0.10535260423123521
aF0.1484675665971844
aF0.10722497360176493
aF0.05323397832675952
aF0.268407837169531
aF0.0735906582757861
aF0.05142280762010499
aF0.07233795865918605
aF0.020781939242955825
aF0.24751476341888964
aF0.1634070486081825
aF0.09188895159265498
aF0.05271839463168241
aF0.06899568149129426
aF0.12825128587464515
aF0.1171376001411943
aF0.08563826909685585
aF0.09384278907935872
aF0.06444407634537397
aF0.11404168136382037
aF0.13543176232393864
aF0.19714896838818186
aF0.09426456363065314
aF0.1706340952011615
aF0.15067611764497663
aF0.15130783047820007
aF0.07665567009725405
aF0.10189223386122252
aF0.1421105358082064
aF0.08291000621577259
aF0.0779089044298769
aF0.031096871599261406
aF0.025202150823971203
aF0.04113788032210926
aF0.18974795690208235
aF0.20767257164082403
aF0.18391623022214898
aF0.19198151718141462
aF0.08469830381855774
aF0.036915588586303935
aF0.07249418316306123
aF0.056686565794276944
aF0.12363279245037125
aF0.15578085475681108
aF0.07139498557544544
aF0.19769939136782758
aF0.1281095302239564
asS'func_evals'
p9
(lp10
I69
aI15
aI60
aI8
aI13
aI120
aI9
aI33
aI14
aI41
aI75
aI5
aI9
aI9
aI10
aI13
aI35
aI9
aI9
aI28
aI120
aI10
aI82
aI9
aI21
aI55
aI40
aI13
aI27
aI10
aI67
aI120
aI20
aI15
aI6
aI5
aI8
aI22
aI13
aI13
aI9
aI10
aI11
aI28
aI14
aI15
aI69
aI8
aI14
aI42
asS'qp_solves'
p11
(lp12
I68
aI14
aI59
aI7
aI12
aI119
aI8
aI32
aI13
aI40
aI74
aI4
aI8
aI8
aI9
aI12
aI34
aI8
aI8
aI27
aI119
aI9
aI81
aI8
aI20
aI54
aI39
aI12
aI26
aI9
aI66
aI119
aI19
aI14
aI5
aI4
aI7
aI21
aI12
aI12
aI8
aI9
aI10
aI27
aI13
aI14
aI68
aI7
aI13
aI41
assS'BGMR   '
p13
(dp14
g3
(lp15
I00
aI00
aI00
aI01
aI00
aI00
aI00
aI00
aI01
aI01
aI00
aI01
aI01
aI01
aI01
aI00
aI01
aI01
aI01
aI01
aI00
aI00
aI00
aI01
aI01
aI01
aI00
aI00
aI00
aI00
aI00
aI00
aI01
aI01
aI01
aI01
aI01
aI00
aI01
aI01
aI01
aI01
aI00
aI01
aI00
aI01
aI01
aI01
aI00
aI00
asg5
(lp16
F8.33303689956665
aF7.387074947357178
aF10.731997013092041
aF1.090533971786499
aF5.9262189865112305
aF5.158496856689453
aF0.8269760608673096
aF1.9693560600280762
aF0.6629049777984619
aF0.996971845626831
aF1.036013126373291
aF0.5127339363098145
aF1.7829289436340332
aF0.9493889808654785
aF0.7224340438842773
aF0.7247681617736816
aF0.8925747871398926
aF0.7220568656921387
aF0.5223069190979004
aF0.49955010414123535
aF10.083560943603516
aF0.8172168731689453
aF0.8303840160369873
aF1.019700050354004
aF1.1333098411560059
aF1.0038881301879883
aF0.9475488662719727
aF1.2287061214447021
aF8.968899011611938
aF10.028641939163208
aF8.378441095352173
aF10.031635999679565
aF0.9675049781799316
aF0.4883549213409424
aF0.6171391010284424
aF0.4079911708831787
aF0.9766519069671631
aF1.0345180034637451
aF0.6998920440673828
aF1.092115879058838
aF0.590191125869751
aF0.7662410736083984
aF0.5152039527893066
aF0.49030184745788574
aF0.8102869987487793
aF1.0655410289764404
aF1.5368990898132324
aF0.9750559329986572
aF2.850816011428833
aF3.426831007003784
asg7
(lp17
F0.20308851530102068
aF0.29341786123362557
aF0.0965188566910397
aF0.10502427445041694
aF0.1497638901653923
aF0.10452474068501239
aF0.05323417568704172
aF0.29228583780258616
aF0.059058728340669574
aF0.05219166612443683
aF0.061410301286312065
aF0.020782724389139338
aF0.15872171972224267
aF0.16545410064096658
aF0.08498880674769392
aF0.04321623631251243
aF0.06829280358572165
aF0.08551358756058929
aF0.14852358501930205
aF0.08344550321876203
aF0.12927600093676833
aF0.06444590651464946
aF0.08751518542106056
aF0.10882740747094845
aF0.11267567898943857
aF0.10050184000198535
aF0.16929849959508975
aF0.1632441023831058
aF0.10256895223123867
aF0.0949456755462445
aF0.08624498480824719
aF0.1175950703839005
aF0.06275588696717697
aF0.0772624597348853
aF0.031097015482484773
aF0.025204598018631046
aF0.05133881399353887
aF0.20223572960563477
aF0.11565108401922629
aF0.15780397026523219
aF0.18575591732353525
aF0.07382451961338915
aF0.03697488652253191
aF0.07382725108140221
aF0.04445290064878969
aF0.12889808763827446
aF0.18215883253611892
aF0.06959538408958293
aF0.23493625911989954
aF0.13560490809014067
asg9
(lp18
I96
aI62
aI114
aI15
aI69
aI62
aI9
aI24
aI7
aI14
aI9
aI6
aI22
aI8
aI10
aI8
aI8
aI10
aI8
aI8
aI120
aI9
aI9
aI14
aI15
aI14
aI13
aI16
aI95
aI120
aI102
aI120
aI9
aI8
aI7
aI5
aI14
aI14
aI10
aI15
aI9
aI8
aI6
aI8
aI9
aI15
aI20
aI14
aI35
aI43
asg11
(lp19
I95
aI61
aI113
aI14
aI68
aI61
aI8
aI23
aI6
aI13
aI8
aI5
aI21
aI7
aI9
aI7
aI7
aI9
aI7
aI7
aI119
aI8
aI8
aI13
aI14
aI13
aI12
aI15
aI94
aI119
aI101
aI119
aI8
aI7
aI6
aI4
aI13
aI13
aI9
aI14
aI8
aI7
aI5
aI7
aI8
aI14
aI19
aI13
aI34
aI42
assS'GPY    '
p20
(dp21
g3
(lp22
I00
aI00
aI00
aI01
aI00
aI00
aI00
aI00
aI01
aI01
aI00
aI01
aI01
aI01
aI01
aI00
aI01
aI01
aI01
aI01
aI00
aI00
aI00
aI01
aI01
aI01
aI01
aI01
aI00
aI00
aI00
aI00
aI01
aI01
aI01
aI01
aI01
aI00
aI01
aI01
aI01
aI01
aI00
aI01
aI00
aI01
aI01
aI01
aI00
aI00
asg5
(lp23
F11.407353162765503
aF2.4012041091918945
aF0.9410369396209717
aF1.16188383102417
aF1.1003210544586182
aF0.9075520038604736
aF0.6901700496673584
aF6.471205949783325
aF1.7071619033813477
aF1.6647160053253174
aF5.693181991577148
aF0.4795949459075928
aF7.5188140869140625
aF0.9967401027679443
aF1.5816128253936768
aF0.7943301200866699
aF1.2975828647613525
aF0.7133150100708008
aF0.7833619117736816
aF2.238395929336548
aF1.2271919250488281
aF0.8886840343475342
aF5.094462871551514
aF1.087033987045288
aF0.701002836227417
aF4.214105129241943
aF1.637315034866333
aF1.2452740669250488
aF0.8919880390167236
aF0.9945979118347168
aF0.790337085723877
aF0.9895501136779785
aF1.37996506690979
aF0.5600039958953857
aF0.680621862411499
aF0.47603917121887207
aF1.1288039684295654
aF1.199688196182251
aF0.6802060604095459
aF1.0680320262908936
aF0.6578731536865234
aF0.7175700664520264
aF0.6839509010314941
aF1.8565928936004639
aF0.55576491355896
aF0.5561909675598145
aF0.48005199432373047
aF0.5574021339416504
aF1.3264930248260498
aF0.9925417900085449
asg7
(lp24
F0.16198579358537646
aF0.15248134054388743
aF0.07677400805882348
aF0.10755054610130185
aF0.10737003500858608
aF0.08090208105241983
aF0.05323277556658829
aF0.2415086006167158
aF0.06676748229142261
aF0.048945776078184004
aF0.08066361834746555
aF0.020780690450258654
aF0.1589707765425773
aF0.15437128911439976
aF0.09383857348049374
aF0.043217730805085015
aF0.06733765630439584
aF0.09759496926808302
aF0.13492523914598517
aF0.08897862538354848
aF0.09454464805702274
aF0.06444376193210842
aF0.10992730629068648
aF0.1109808466113781
aF0.1723291915054386
aF0.09393196399331208
aF0.16759254875773671
aF0.15098242941258824
aF0.0878524796776936
aF0.07665191572568657
aF0.07013561687037154
aF0.09002146463004082
aF0.06279614018481083
aF0.07690414684021114
aF0.03109673850351007
aF0.025203751107997743
aF0.04656128786382327
aF0.14287928976471348
aF0.1532032770901599
aF0.17558139149244595
aF0.19631436364810556
aF0.07382637570684975
aF0.03697563445850035
aF0.07756238564573278
aF0.05273102253004487
aF0.12421245177675591
aF0.1914659229578112
aF0.07354967220657294
aF0.12562500825283007
aF0.11043684204989078
asg9
(lp25
I120
aI14
aI12
aI15
aI10
aI9
aI7
aI74
aI21
aI21
aI48
aI5
aI63
aI8
aI13
aI8
aI15
aI9
aI10
aI28
aI15
aI9
aI62
aI14
aI9
aI42
aI13
aI15
aI9
aI10
aI8
aI10
aI12
aI8
aI7
aI5
aI15
aI12
aI9
aI14
aI9
aI7
aI7
aI14
aI8
aI8
aI7
aI8
aI13
aI10
asg11
(lp26
I119
aI13
aI11
aI14
aI9
aI8
aI6
aI73
aI20
aI20
aI47
aI4
aI62
aI7
aI12
aI7
aI14
aI8
aI9
aI27
aI14
aI8
aI61
aI13
aI8
aI41
aI12
aI14
aI8
aI9
aI7
aI9
aI11
aI7
aI6
aI4
aI14
aI11
aI8
aI13
aI8
aI6
aI6
aI13
aI7
aI7
aI6
aI7
aI12
aI9
assS'STD    '
p27
(dp28
g3
(lp29
I00
aI00
aI00
aI01
aI00
aI00
aI00
aI00
aI00
aI01
aI00
aI01
aI01
aI01
aI01
aI01
aI01
aI01
aI01
aI01
aI00
aI00
aI00
aI01
aI01
aI01
aI00
aI00
aI00
aI00
aI00
aI00
aI01
aI01
aI01
aI01
aI01
aI00
aI01
aI00
aI00
aI00
aI00
aI01
aI01
aI01
aI01
aI01
aI00
aI00
asg5
(lp30
F5.560328006744385
aF14.497121810913086
aF7.024870872497559
aF10.91267991065979
aF9.318511962890625
aF4.033545970916748
aF0.9200599193572998
aF2.849215030670166
aF2.233319044113159
aF8.993632078170776
aF11.404382944107056
aF0.7055199146270752
aF2.1985301971435547
aF3.6875829696655273
aF8.228698015213013
aF9.981218099594116
aF11.359227180480957
aF7.8105340003967285
aF5.0934998989105225
aF10.48597002029419
aF6.351797103881836
aF1.1216731071472168
aF10.020541906356812
aF12.23816204071045
aF1.9320590496063232
aF13.905985832214355
aF2.8141849040985107
aF6.954248905181885
aF9.013544082641602
aF1.704732894897461
aF7.35100793838501
aF7.501750946044922
aF1.5357048511505127
aF11.087812900543213
aF0.9688820838928223
aF0.7074110507965088
aF8.772672891616821
aF6.43668007850647
aF3.659147024154663
aF10.081911087036133
aF9.9619619846344
aF3.354458808898926
aF8.575448036193848
aF8.910881996154785
aF9.931977987289429
aF9.94031286239624
aF2.7202999591827393
aF9.895214080810547
aF10.133193016052246
aF7.978576898574829
asg7
(lp31
F0.18440637423100265
aF0.16702090048062831
aF0.08671682753487839
aF0.10797655961253676
aF0.12033959812185016
aF0.09012007859160845
aF0.05323252430787299
aF0.305110023270857
aF0.09212951441654113
aF0.0520970252314409
aF0.07867108177259566
aF0.020782675180262934
aF0.24585026728064768
aF0.1704722637198884
aF0.08488906137071162
aF0.05294475450917029
aF0.07502102892645705
aF0.09368384068050346
aF0.1695519694065076
aF0.08676036158376595
aF0.11400005813254922
aF0.06444381072009682
aF0.10871340487652528
aF0.1130023495767563
aF0.19453689296500026
aF0.10513262276583968
aF0.17202439528276406
aF0.18474826679370643
aF0.0941085782303683
aF0.08537141569938092
aF0.07943086456752049
aF0.10013167310293997
aF0.0738798797103402
aF0.08457669437354988
aF0.031096563251137112
aF0.025204516871366513
aF0.0480304289465843
aF0.16979496524563648
aF0.2590099779177496
aF0.17449545329793686
aF0.1795022703202364
aF0.12978242173242177
aF0.04094705090822246
aF0.08024300819642209
aF0.05397463114650419
aF0.12539569277098814
aF0.23528283862082555
aF0.07578244567122987
aF0.13396458612955148
aF0.12938602035885227
asg9
(lp32
I63
aI117
aI74
aI115
aI110
aI49
aI10
aI34
aI28
aI108
aI120
aI8
aI21
aI34
aI87
aI120
aI121
aI76
aI61
aI115
aI76
aI12
aI120
aI110
aI24
aI121
aI35
aI63
aI108
aI22
aI89
aI89
aI20
aI121
aI9
aI8
aI108
aI76
aI44
aI120
aI120
aI41
aI88
aI81
aI121
aI121
aI33
aI121
aI120
aI96
asg11
(lp33
I62
aI116
aI73
aI114
aI109
aI48
aI9
aI33
aI27
aI107
aI119
aI7
aI20
aI33
aI86
aI119
aI120
aI75
aI60
aI114
aI75
aI11
aI119
aI109
aI23
aI120
aI34
aI62
aI107
aI21
aI88
aI88
aI19
aI120
aI8
aI7
aI107
aI75
aI43
aI119
aI119
aI40
aI87
aI80
aI120
aI120
aI32
aI120
aI119
aI95
assS'BGMR_PCA  '
p34
(dp35
g3
(lp36
I00
aI00
aI00
aI01
aI00
aI00
aI00
aI00
aI01
aI01
aI00
aI01
aI01
aI01
aI01
aI00
aI01
aI01
aI01
aI00
aI00
aI00
aI00
aI01
aI01
aI01
aI00
aI00
aI00
aI00
aI00
aI00
aI01
aI01
aI01
aI01
aI01
aI00
aI01
aI01
aI01
aI01
aI00
aI01
aI00
aI01
aI01
aI01
aI00
aI00
asg5
(lp37
F1.5532710552215576
aF7.912927150726318
aF1.4365739822387695
aF0.5747470855712891
aF7.5720438957214355
aF4.596076965332031
aF0.8942828178405762
aF1.8556859493255615
aF0.7209630012512207
aF1.0815849304199219
aF3.468435049057007
aF0.5848178863525391
aF2.4714720249176025
aF0.6937448978424072
aF0.9975790977478027
aF1.0894150733947754
aF1.722343921661377
aF0.675800085067749
aF0.6809558868408203
aF1.1558308601379395
aF4.530364990234375
aF0.8924341201782227
aF5.102942943572998
aF4.276994943618774
aF1.1104469299316406
aF2.3842360973358154
aF0.7783029079437256
aF1.18855881690979
aF9.995507955551147
aF6.274688005447388
aF9.536810159683228
aF10.116957902908325
aF1.0118908882141113
aF1.6633050441741943
aF0.43726587295532227
aF0.576124906539917
aF0.7859458923339844
aF9.406656980514526
aF0.7748308181762695
aF1.6569077968597412
aF0.6569337844848633
aF3.0939319133758545
aF1.1772310733795166
aF1.0470860004425049
aF0.8829209804534912
aF1.7237441539764404
aF0.785783052444458
aF1.0413410663604736
aF10.182229042053223
aF4.581665992736816
asg7
(lp38
F0.23270456950005738
aF0.2866443177918929
aF0.07675544857219291
aF0.1042859926373175
aF0.152437023606411
aF0.10283982279276854
aF0.05323432574913921
aF0.27878265051794965
aF0.05905883907927952
aF0.051511473399074956
aF0.08783418653326429
aF0.020783812840165537
aF0.15587809576834133
aF0.15629607934760498
aF0.08782572850980808
aF0.043216604793766995
aF0.06563061626684613
aF0.10052742763329092
aF0.13336705564323037
aF0.07942442681043183
aF0.10063749901553858
aF0.06444574332717619
aF0.1122718177056219
aF0.10040018504174886
aF0.10873272948572547
aF0.10193652790793331
aF0.15113410325194737
aF0.13667214438384698
aF0.09527601722512737
aF0.10049083656385051
aF0.08205419169481104
aF0.10541588445998522
aF0.0627965739600374
aF0.0743028440637646
aF0.03109740533422119
aF0.025203753300995654
aF0.04113671440885312
aF0.14623017059116677
aF0.11162874088356044
aF0.15770563806997723
aF0.18296803840860618
aF0.09085012115536284
aF0.03697511729268409
aF0.07164382555436204
aF0.044453048294631654
aF0.12903433399567546
aF0.1915489665260595
aF0.07047113767247071
aF0.1769732287462314
aF0.15012740983229103
asg9
(lp39
I14
aI68
aI13
aI8
aI89
aI55
aI9
aI22
aI7
aI14
aI35
aI6
aI22
aI9
aI13
aI8
aI15
aI9
aI9
aI15
aI54
aI9
aI62
aI41
aI14
aI21
aI10
aI15
aI120
aI75
aI115
aI120
aI12
aI15
aI5
aI6
aI8
aI113
aI10
aI21
aI9
aI37
aI7
aI14
aI9
aI22
aI10
aI14
aI120
aI56
asg11
(lp40
I13
aI67
aI12
aI7
aI88
aI54
aI8
aI21
aI6
aI13
aI34
aI5
aI21
aI8
aI12
aI7
aI14
aI8
aI8
aI14
aI53
aI8
aI61
aI40
aI13
aI20
aI9
aI14
aI119
aI74
aI114
aI119
aI11
aI14
aI4
aI5
aI7
aI112
aI9
aI20
aI8
aI36
aI6
aI13
aI8
aI21
aI9
aI13
aI119
aI55
assS'GPY_PCA   '
p41
(dp42
g3
(lp43
I00
aI00
aI00
aI01
aI00
aI01
aI00
aI00
aI01
aI01
aI00
aI01
aI01
aI01
aI01
aI01
aI01
aI01
aI01
aI01
aI00
aI00
aI00
aI01
aI01
aI01
aI00
aI00
aI01
aI01
aI00
aI01
aI01
aI01
aI01
aI01
aI01
aI01
aI01
aI01
aI00
aI01
aI00
aI01
aI00
aI01
aI00
aI00
aI00
aI00
asg5
(lp44
F11.154864072799683
aF2.5049099922180176
aF8.840735912322998
aF1.1638929843902588
aF1.1194689273834229
aF5.612730979919434
aF1.0076301097869873
aF2.988480806350708
aF2.293942928314209
aF1.1713840961456299
aF4.913124084472656
aF0.48149704933166504
aF1.2018828392028809
aF1.1168229579925537
aF3.631568193435669
aF3.509462833404541
aF1.2364201545715332
aF1.151655912399292
aF0.7769241333007812
aF4.502692937850952
aF10.064458131790161
aF0.9948911666870117
aF5.078346014022827
aF0.6777241230010986
aF0.9308700561523438
aF0.978665828704834
aF0.8195209503173828
aF4.417611837387085
aF5.388724088668823
aF6.707848787307739
aF5.81328821182251
aF5.284487009048462
aF0.9072949886322021
aF0.5606980323791504
aF0.6791338920593262
aF0.4762091636657715
aF1.6221959590911865
aF1.0168170928955078
aF0.7845029830932617
aF2.8487708568573
aF0.6545591354370117
aF0.6790771484375
aF0.6022319793701172
aF2.5132641792297363
aF1.6341578960418701
aF1.133146047592163
aF0.4929978847503662
aF0.5558779239654541
aF0.9880530834197998
aF1.0003430843353271
asg7
(lp45
F0.16750685838022022
aF0.2218957483167743
aF0.11003343008871062
aF0.10677212531017202
aF0.10736821580986128
aF0.12327841002978752
aF0.053233128734849436
aF0.28528764686594804
aF0.068325925452475
aF0.05024890221214551
aF0.07553362641221374
aF0.02078051986847494
aF0.19253574283768654
aF0.16113461365750398
aF0.08639601897587924
aF0.05038537104784789
aF0.06789537768826895
aF0.09496685505293104
aF0.1660584197130804
aF0.08368254480920626
aF0.11508494786384231
aF0.06444522712404471
aF0.10960375410165903
aF0.1126207959421266
aF0.18844105662597702
aF0.10437344072584652
aF0.13694608513462092
aF0.201287390862765
aF0.12284580945755162
aF0.11936721120655176
aF0.09600822263929924
aF0.14937741177421812
aF0.06846721927109932
aF0.07775236009633378
aF0.03109681247552901
aF0.02520303175757449
aF0.048366136370543045
aF0.17514096979383786
aF0.15832618831904902
aF0.17053705622154214
aF0.19436885503976709
aF0.08605117900581129
aF0.03697525019419135
aF0.07920351702153391
aF0.053496644656423294
aF0.12277206642266052
aF0.19043412231903556
aF0.07294851042799479
aF0.1382452930944276
aF0.11043632746146045
asg9
(lp46
I120
aI21
aI74
aI15
aI11
aI67
aI10
aI35
aI28
aI15
aI48
aI5
aI9
aI12
aI29
aI35
aI15
aI9
aI10
aI55
aI120
aI10
aI62
aI9
aI12
aI8
aI10
aI54
aI48
aI81
aI70
aI63
aI12
aI8
aI7
aI5
aI21
aI13
aI10
aI35
aI9
aI9
aI6
aI21
aI21
aI15
aI7
aI8
aI13
aI10
asg11
(lp47
I119
aI20
aI73
aI14
aI10
aI66
aI9
aI34
aI27
aI14
aI47
aI4
aI8
aI11
aI28
aI34
aI14
aI8
aI9
aI54
aI119
aI9
aI61
aI8
aI11
aI7
aI9
aI53
aI47
aI80
aI69
aI62
aI11
aI7
aI6
aI4
aI20
aI12
aI9
aI34
aI8
aI8
aI5
aI20
aI20
aI14
aI6
aI7
aI12
aI9
assS'ensemble'
p48
(dp49
g3
(lp50
I00
aI00
aI00
aI01
aI00
aI01
aI00
aI00
aI01
aI01
aI00
aI01
aI01
aI01
aI01
aI01
aI01
aI01
aI01
aI01
aI00
aI00
aI00
aI01
aI01
aI01
aI01
aI01
aI01
aI01
aI00
aI01
aI01
aI01
aI01
aI01
aI01
aI01
aI01
aI01
aI01
aI01
aI00
aI01
aI01
aI01
aI01
aI01
aI01
aI00
asg5
(lp51
F12.83094310760498
aF7.931502103805542
aF10.729589939117432
aF0.8111450672149658
aF11.03181791305542
aF7.020749807357788
aF1.4117059707641602
aF7.426187992095947
aF1.1121671199798584
aF1.5137910842895508
aF6.923961162567139
aF0.7118079662322998
aF1.413045883178711
aF1.0122339725494385
aF1.1133840084075928
aF1.3127050399780273
aF1.2170279026031494
aF1.0128941535949707
aF0.8119380474090576
aF0.9121360778808594
aF12.331687927246094
aF1.4151248931884766
aF8.431449890136719
aF1.0119359493255615
aF1.012686014175415
aF0.9123759269714355
aF2.1196799278259277
aF1.513469934463501
aF4.918990850448608
aF7.924122095108032
aF11.33029317855835
aF6.922830104827881
aF1.0128178596496582
aF1.2207632064819336
aF0.7166328430175781
aF0.7125940322875977
aF1.1130070686340332
aF1.5142760276794434
aF1.0139670372009277
aF1.4145021438598633
aF1.0154218673706055
aF1.0132241249084473
aF1.3130769729614258
aF0.8125729560852051
aF1.5133957862854004
aF0.8129808902740479
aF0.7157869338989258
aF0.8130559921264648
aF1.61698317527771
aF5.421763181686401
asg7
(lp52
F0.16750685838022022
aF0.2866443177918929
aF0.0965188566910397
aF0.10535260423123521
aF0.152437023606411
aF0.12327841002978752
aF0.053233128734849436
aF0.2415086006167158
aF0.05905883907927952
aF0.05219166612443683
aF0.07233795865918605
aF0.020780690450258654
aF0.24751476341888964
aF0.15437128911439976
aF0.09188895159265498
aF0.05271839463168241
aF0.06829280358572165
aF0.12825128587464515
aF0.14852358501930205
aF0.08344550321876203
aF0.12927600093676833
aF0.06444407634537397
aF0.11404168136382037
aF0.1126207959421266
aF0.1723291915054386
aF0.10437344072584652
aF0.16759254875773671
aF0.15067611764497663
aF0.12284580945755162
aF0.11936721120655176
aF0.08205419169481104
aF0.14937741177421812
aF0.06275588696717697
aF0.0772624597348853
aF0.03109740533422119
aF0.025204598018631046
aF0.04113671440885312
aF0.17514096979383786
aF0.1532032770901599
aF0.18391623022214898
aF0.19631436364810556
aF0.08605117900581129
aF0.036915588586303935
aF0.07382725108140221
aF0.056686565794276944
aF0.12421245177675591
aF0.1914659229578112
aF0.07139498557544544
aF0.19769939136782758
aF0.15012740983229103
asg9
(lp53
sg11
(lp54
ss.