(dp0
S'NN     '
p1
(dp2
S'successes'
p3
(lp4
I00
aI01
aI00
aI00
aI01
aI00
aI00
aI00
aI01
aI00
aI01
aI01
aI01
aI00
aI01
aI00
aI01
aI00
aI01
aI00
aI01
aI00
aI00
aI01
aI01
aI01
aI01
aI00
aI00
aI00
aI00
aI01
aI00
aI01
aI00
aI01
aI01
aI00
aI00
aI00
aI00
aI01
aI00
aI00
aI00
aI00
aI01
aI00
aI01
aI01
asS'comp_times'
p5
(lp6
F3.0619678497314453
aF1.1037909984588623
aF1.0287480354309082
aF4.977488994598389
aF0.5152039527893066
aF0.8323488235473633
aF3.0645439624786377
aF1.215087890625
aF0.584709882736206
aF0.6248230934143066
aF1.680199146270752
aF1.034264087677002
aF5.216268062591553
aF3.3532378673553467
aF0.9385020732879639
aF1.0763399600982666
aF0.3141171932220459
aF0.8205130100250244
aF0.6225790977478027
aF2.0087478160858154
aF2.702609062194824
aF1.0117120742797852
aF0.5996110439300537
aF1.60654878616333
aF1.1170051097869873
aF7.574134826660156
aF2.123660087585449
aF11.345635175704956
aF1.302088975906372
aF0.7275199890136719
aF1.1141300201416016
aF1.0837900638580322
aF2.8877370357513428
aF0.9515190124511719
aF7.093005180358887
aF0.982853889465332
aF1.1862061023712158
aF6.524953126907349
aF0.8412530422210693
aF11.964901208877563
aF5.80349588394165
aF1.2744979858398438
aF0.9326531887054443
aF12.642895936965942
aF2.2599639892578125
aF2.2991509437561035
aF0.8508889675140381
aF1.0697340965270996
aF0.4946439266204834
aF1.066220998764038
asS'costs'
p7
(lp8
F0.14971193357083418
aF0.1642835641500919
aF0.09927310290028102
aF0.1586417098876999
aF0.25669725251146197
aF0.060340968189337825
aF0.19875963161884264
aF0.10329027389769607
aF0.034239149630337425
aF0.0630615330933093
aF0.15964830487903028
aF0.1873547719910882
aF0.10527423208734052
aF0.1070301057598063
aF0.025798307529278613
aF0.06759328381541586
aF0.05333526211154365
aF0.10715554546916495
aF0.19697184075048393
aF0.23458555292755032
aF0.19774133987388634
aF0.11613876556629493
aF0.24788347410053416
aF0.08649863380377931
aF0.11333664812997725
aF0.18499328736246992
aF0.1796195049936128
aF0.08080317197991811
aF0.25693686314344044
aF0.051480405421154535
aF0.25051055653520093
aF0.10926434736549236
aF0.17871822237263962
aF0.136920316464641
aF0.16290943842314093
aF0.07398374098598032
aF0.13172413359791846
aF0.17722225747469095
aF0.2167436740313916
aF0.1512161286679067
aF0.14918495675076593
aF0.054415148889157126
aF0.13408018354613005
aF0.13314040978118963
aF0.13230470840341357
aF0.15580678842766185
aF0.2388011440041288
aF0.14025714679493073
aF0.09843024647324623
aF0.07159504093374575
asS'func_evals'
p9
(lp10
I27
aI15
aI14
aI34
aI8
aI9
aI29
aI13
aI9
aI9
aI13
aI14
aI52
aI42
aI6
aI15
aI4
aI11
aI9
aI26
aI33
aI10
aI9
aI11
aI15
aI64
aI27
aI120
aI10
aI8
aI9
aI15
aI36
aI13
aI63
aI14
aI10
aI63
aI12
aI121
aI56
aI17
aI10
aI109
aI29
aI15
aI12
aI14
aI8
aI15
asS'qp_solves'
p11
(lp12
I26
aI14
aI13
aI33
aI7
aI8
aI28
aI12
aI8
aI8
aI12
aI13
aI51
aI41
aI5
aI14
aI3
aI10
aI8
aI25
aI32
aI9
aI8
aI10
aI14
aI63
aI26
aI119
aI9
aI7
aI8
aI14
aI35
aI12
aI62
aI13
aI9
aI62
aI11
aI120
aI55
aI16
aI9
aI108
aI28
aI14
aI11
aI13
aI7
aI14
assS'BGMR   '
p13
(dp14
g3
(lp15
I00
aI01
aI00
aI00
aI01
aI00
aI00
aI00
aI00
aI00
aI00
aI01
aI01
aI00
aI01
aI01
aI01
aI00
aI01
aI01
aI01
aI00
aI01
aI01
aI01
aI01
aI00
aI00
aI00
aI00
aI00
aI01
aI01
aI01
aI00
aI01
aI01
aI01
aI00
aI00
aI00
aI01
aI00
aI00
aI00
aI00
aI01
aI00
aI01
aI01
asg5
(lp16
F3.1513421535491943
aF1.798142910003662
aF0.6150469779968262
aF1.2079110145568848
aF0.5120248794555664
aF0.8410658836364746
aF5.477662086486816
aF0.9326961040496826
aF0.6189980506896973
aF0.715778112411499
aF4.098320960998535
aF0.5198049545288086
aF3.200098991394043
aF0.5977129936218262
aF0.7464299201965332
aF0.4913449287414551
aF2.1317028999328613
aF0.9332900047302246
aF0.516944169998169
aF0.6934559345245361
aF0.999147891998291
aF2.7679500579833984
aF0.7110910415649414
aF0.72359299659729
aF0.5058069229125977
aF2.049471855163574
aF1.1506609916687012
aF0.8195300102233887
aF0.6310579776763916
aF0.6140999794006348
aF1.0246989727020264
aF1.2695438861846924
aF0.59521484375
aF1.0967469215393066
aF1.6737661361694336
aF1.0140380859375
aF2.6721689701080322
aF0.9631021022796631
aF3.1185638904571533
aF11.760179996490479
aF3.4479870796203613
aF1.2702980041503906
aF3.5145039558410645
aF11.775329113006592
aF3.9238638877868652
aF2.5457611083984375
aF1.8529610633850098
aF1.3302311897277832
aF0.48932409286499023
aF0.49019694328308105
asg7
(lp17
F0.24630024172907855
aF0.1677712397550397
aF0.1291516922043632
aF0.18733539255028425
aF0.23275690911656644
aF0.06033884739738076
aF0.18191409813603998
aF0.07541929318827884
aF0.03127939883452134
aF0.05569240476045317
aF0.17704918139409664
aF0.17569498994783128
aF0.10958516765674464
aF0.11963116918732497
aF0.025797994317611227
aF0.07242973947742794
aF0.06169347181121047
aF0.10685836567068852
aF0.17144441040208844
aF0.19748653388974896
aF0.1130959258190578
aF0.1573458329960639
aF0.2546913867297833
aF0.08940097927850757
aF0.11658165777438508
aF0.2223831385635143
aF0.16818634430163826
aF0.06614470670135332
aF0.2693084558541893
aF0.05148046404142859
aF0.2411289493035897
aF0.11498417984337778
aF0.18872489525904607
aF0.13614220440879524
aF0.2448545323609716
aF0.08001137970895777
aF0.0963524034776499
aF0.196983434250065
aF0.27399260767807804
aF0.10840485951866562
aF0.14110555651179119
aF0.05024727672228144
aF0.15703845257394025
aF0.13619172699624416
aF0.15531398145406114
aF0.18251898355417973
aF0.21098057294831815
aF0.09526957342407799
aF0.09766352977281222
aF0.07271741374150388
asg9
(lp18
I22
aI14
aI9
aI16
aI8
aI9
aI50
aI9
aI7
aI10
aI35
aI8
aI40
aI9
aI5
aI8
aI28
aI12
aI8
aI7
aI14
aI20
aI10
aI10
aI8
aI17
aI15
aI9
aI9
aI7
aI14
aI15
aI9
aI15
aI20
aI14
aI24
aI9
aI36
aI120
aI36
aI13
aI43
aI109
aI49
aI21
aI16
aI10
aI8
aI8
asg11
(lp19
I21
aI13
aI8
aI15
aI7
aI8
aI49
aI8
aI6
aI9
aI34
aI7
aI39
aI8
aI4
aI7
aI27
aI11
aI7
aI6
aI13
aI19
aI9
aI9
aI7
aI16
aI14
aI8
aI8
aI6
aI13
aI14
aI8
aI14
aI19
aI13
aI23
aI8
aI35
aI119
aI35
aI12
aI42
aI108
aI48
aI20
aI15
aI9
aI7
aI7
assS'GPY    '
p20
(dp21
g3
(lp22
I00
aI01
aI00
aI00
aI01
aI00
aI00
aI00
aI00
aI00
aI00
aI01
aI01
aI00
aI01
aI01
aI01
aI00
aI01
aI01
aI01
aI00
aI00
aI01
aI01
aI00
aI00
aI00
aI00
aI00
aI00
aI01
aI01
aI01
aI00
aI01
aI01
aI00
aI00
aI00
aI00
aI01
aI01
aI00
aI00
aI00
aI00
aI00
aI01
aI01
asg5
(lp23
F1.6529250144958496
aF1.2819280624389648
aF0.911064863204956
aF1.2639219760894775
aF0.5872688293457031
aF0.8004841804504395
aF1.1652719974517822
aF1.7458300590515137
aF0.6936988830566406
aF1.0327529907226562
aF1.397049903869629
aF0.5903530120849609
aF2.2228710651397705
aF1.166424036026001
aF0.80582594871521
aF2.7766599655151367
aF0.961327075958252
aF0.8841080665588379
aF2.975212812423706
aF0.9829549789428711
aF2.1906330585479736
aF14.695703983306885
aF1.0421581268310547
aF1.570530891418457
aF1.1881039142608643
aF8.535938024520874
aF10.368937015533447
aF1.157926082611084
aF0.837744951248169
aF0.7882318496704102
aF0.5835130214691162
aF1.7477290630340576
aF0.5717389583587646
aF1.8897638320922852
aF12.807249069213867
aF1.0551741123199463
aF2.2054920196533203
aF1.132918119430542
aF1.1419570446014404
aF1.126039981842041
aF1.084947109222412
aF0.5739591121673584
aF1.169301986694336
aF13.45362901687622
aF1.1052231788635254
aF1.2240750789642334
aF0.9408020973205566
aF1.357050895690918
aF0.5592930316925049
aF0.5545048713684082
asg7
(lp24
F0.17831440728239428
aF0.1706008693523723
aF0.13041347928963998
aF0.18815727445348887
aF0.23261626312574374
aF0.06033755183941321
aF0.19117289130427365
aF0.07543157659242317
aF0.03127934872424336
aF0.08010781655733816
aF0.11078375860719555
aF0.17746734045278953
aF0.11168504818694422
aF0.10597239520361992
aF0.025798455953599465
aF0.07238380353473227
aF0.05927808402842195
aF0.10686327985610207
aF0.14098916075792473
aF0.2308349900054785
aF0.1243521954655787
aF0.15291884263318475
aF0.180989988625707
aF0.08635718662940371
aF0.11235476173109098
aF0.18105898390858435
aF0.2221210636667192
aF0.0661445726723229
aF0.24543503062986846
aF0.051480657986200266
aF0.2535507477477403
aF0.11452520569443912
aF0.1906826304768731
aF0.1424506006593141
aF0.28045585892147246
aF0.07036296146195667
aF0.11223479203385268
aF0.17119778597352517
aF0.2205847562193604
aF0.10104605083403355
aF0.1482089987321578
aF0.053270264510117495
aF0.1675645342955908
aF0.12707908999509232
aF0.10856334988238235
aF0.155577054746781
aF0.2233535541787763
aF0.14187062984913387
aF0.09614818804666843
aF0.07182879240294548
asg9
(lp25
I16
aI16
aI12
aI14
aI8
aI8
aI9
aI14
aI7
aI12
aI10
aI8
aI28
aI15
aI5
aI35
aI13
aI11
aI36
aI8
aI27
aI121
aI13
aI13
aI15
aI76
aI120
aI7
aI10
aI8
aI8
aI15
aI8
aI15
aI121
aI14
aI21
aI9
aI14
aI11
aI14
aI8
aI15
aI116
aI11
aI14
aI12
aI10
aI8
aI8
asg11
(lp26
I15
aI15
aI11
aI13
aI7
aI7
aI8
aI13
aI6
aI11
aI9
aI7
aI27
aI14
aI4
aI34
aI12
aI10
aI35
aI7
aI26
aI120
aI12
aI12
aI14
aI75
aI119
aI6
aI9
aI7
aI7
aI14
aI7
aI14
aI120
aI13
aI20
aI8
aI13
aI10
aI13
aI7
aI14
aI115
aI10
aI13
aI11
aI9
aI7
aI7
assS'STD    '
p27
(dp28
g3
(lp29
I00
aI01
aI00
aI00
aI01
aI00
aI00
aI00
aI00
aI00
aI00
aI01
aI01
aI00
aI01
aI01
aI01
aI00
aI01
aI01
aI01
aI00
aI00
aI00
aI01
aI00
aI00
aI00
aI00
aI00
aI00
aI01
aI01
aI01
aI00
aI01
aI01
aI01
aI00
aI00
aI00
aI01
aI00
aI00
aI00
aI00
aI00
aI00
aI01
aI01
asg5
(lp30
F3.754925012588501
aF11.046711921691895
aF4.657404184341431
aF2.479599952697754
aF9.09644889831543
aF1.1338322162628174
aF11.49858808517456
aF14.366997957229614
aF0.8203310966491699
aF0.9456050395965576
aF13.401585102081299
aF4.9984400272369385
aF10.39562201499939
aF8.617179870605469
aF1.2957000732421875
aF9.953943967819214
aF1.0235331058502197
aF2.3214809894561768
aF3.789220094680786
aF10.137063026428223
aF3.5172009468078613
aF15.003127813339233
aF6.4597461223602295
aF3.1713759899139404
aF7.384695053100586
aF13.115155935287476
aF8.242345809936523
aF0.9410738945007324
aF6.015872955322266
aF0.8266417980194092
aF7.609828948974609
aF10.686397075653076
aF9.159934043884277
aF7.260628938674927
aF7.270923137664795
aF8.767501831054688
aF4.821671962738037
aF13.334280014038086
aF4.049329996109009
aF1.8935070037841797
aF14.054483890533447
aF7.367123126983643
aF9.559696912765503
aF13.490339994430542
aF8.604762077331543
aF1.8722758293151855
aF4.709181070327759
aF2.6794049739837646
aF9.62097692489624
aF13.781402826309204
asg7
(lp31
F0.24502115466537905
aF0.1674344237387728
aF0.19866590779764204
aF0.22869390550134924
aF0.24427484303245756
aF0.060338135351918454
aF0.20576424005517502
aF0.0854744098098961
aF0.03128011584253729
aF0.04978445004350755
aF0.12261114751294307
aF0.17107298822844832
aF0.1190975349851353
aF0.10235672800514652
aF0.025796988065803206
aF0.07459678986958161
aF0.053329140573018005
aF0.11921383192950202
aF0.2200331514015581
aF0.23945269128954783
aF0.24779041747045993
aF0.12603371110376776
aF0.27255504021636934
aF0.27699685113377004
aF0.12553172737168483
aF0.19576730114771262
aF0.11813846878874298
aF0.07455005380789047
aF0.2961543707740933
aF0.05147706336591612
aF0.2983479668511388
aF0.11488960674223458
aF0.19034334872298517
aF0.14012245967805534
aF0.15952442852337756
aF0.08326441399906019
aF0.17870058559091115
aF0.19416747988607924
aF0.3599071668179442
aF0.10104617181105613
aF0.14233016025015696
aF0.06909790231256552
aF0.16395766447238497
aF0.14152069823378188
aF0.1218859511623785
aF0.18198100333265932
aF0.2746579411736765
aF0.15065848819786296
aF0.10127326062930078
aF0.07840612199069015
asg9
(lp32
I35
aI102
aI53
aI28
aI94
aI12
aI109
aI120
aI9
aI13
aI110
aI59
aI120
aI103
aI8
aI121
aI11
aI29
aI34
aI90
aI42
aI120
aI60
aI37
aI76
aI120
aI83
aI13
aI67
aI9
aI68
aI115
aI109
aI75
aI73
aI101
aI35
aI109
aI39
aI14
aI120
aI67
aI103
aI120
aI103
aI20
aI35
aI33
aI115
aI121
asg11
(lp33
I34
aI101
aI52
aI27
aI93
aI11
aI108
aI119
aI8
aI12
aI109
aI58
aI119
aI102
aI7
aI120
aI10
aI28
aI33
aI89
aI41
aI119
aI59
aI36
aI75
aI119
aI82
aI12
aI66
aI8
aI67
aI114
aI108
aI74
aI72
aI100
aI34
aI108
aI38
aI13
aI119
aI66
aI102
aI119
aI102
aI19
aI34
aI32
aI114
aI120
assS'BGMR_PCA  '
p34
(dp35
g3
(lp36
I00
aI01
aI00
aI00
aI01
aI00
aI00
aI00
aI00
aI00
aI00
aI01
aI01
aI00
aI01
aI01
aI01
aI00
aI01
aI01
aI01
aI00
aI00
aI01
aI01
aI01
aI00
aI00
aI00
aI00
aI00
aI01
aI01
aI01
aI00
aI01
aI01
aI01
aI00
aI00
aI00
aI01
aI00
aI00
aI00
aI00
aI00
aI00
aI01
aI01
asg5
(lp37
F4.461308002471924
aF1.6903388500213623
aF0.6843678951263428
aF1.0058238506317139
aF0.5973801612854004
aF0.8976190090179443
aF0.6693029403686523
aF4.200982093811035
aF0.6085641384124756
aF1.1794681549072266
aF11.505987882614136
aF1.8246850967407227
aF2.2308130264282227
aF5.0852110385894775
aF0.4808359146118164
aF0.564007043838501
aF2.1873910427093506
aF2.6654200553894043
aF0.7746579647064209
aF0.9259531497955322
aF1.8835477828979492
aF2.1263551712036133
aF0.7063751220703125
aF1.8053860664367676
aF0.5780282020568848
aF4.959528207778931
aF9.35106897354126
aF1.5543138980865479
aF0.7851290702819824
aF0.6900849342346191
aF1.6871161460876465
aF2.0373499393463135
aF2.861541986465454
aF1.1786420345306396
aF1.6278069019317627
aF1.0611310005187988
aF4.105978012084961
aF2.4883131980895996
aF2.961591958999634
aF2.1266889572143555
aF2.3271780014038086
aF0.8172390460968018
aF3.314578056335449
aF1.1616508960723877
aF6.378825902938843
aF3.099993944168091
aF0.8008251190185547
aF1.7134008407592773
aF0.5590038299560547
aF1.1324818134307861
asg7
(lp38
F0.20430713397935918
aF0.16362069048980601
aF0.12538335835663242
aF0.18227909606124526
aF0.2333266609375109
aF0.060338863508481874
aF0.1979550440253517
aF0.1055315577093349
aF0.03127975196933749
aF0.06726759413761375
aF0.16488388816576277
aF0.17269279681481198
aF0.11062842388230576
aF0.12614486936245456
aF0.025800754831093342
aF0.07202276116152055
aF0.061724674442815555
aF0.10980797212127048
aF0.176060185032457
aF0.22058302404005048
aF0.1107664930090817
aF0.1475158464901443
aF0.2509636800713182
aF0.08654189831364277
aF0.11660716326237108
aF0.19774769605973352
aF0.14389785640731698
aF0.06614487819353769
aF0.24196321785560912
aF0.051479056873599466
aF0.2523501609975085
aF0.1153414443207472
aF0.20832590375899473
aF0.13656664934315443
aF0.2209962150325853
aF0.07810518343943354
aF0.11261793148084184
aF0.2071781579900648
aF0.25753145376664516
aF0.10103415196824005
aF0.14753857194276884
aF0.050232100715009574
aF0.1675916028216137
aF0.14254195021258928
aF0.1528544230151625
aF0.19088079420692858
aF0.18349853485762083
aF0.11417947302191223
aF0.09703350517701356
aF0.06944094889752929
asg9
(lp39
I36
aI21
aI9
aI13
aI8
aI9
aI9
aI35
aI6
aI15
aI96
aI20
aI28
aI62
aI5
aI8
aI28
aI33
aI10
aI12
aI14
aI16
aI8
aI14
aI8
aI49
aI96
aI9
aI10
aI7
aI21
aI15
aI35
aI15
aI20
aI14
aI36
aI29
aI28
aI20
aI29
aI10
aI29
aI15
aI76
aI21
aI10
aI21
aI8
aI15
asg11
(lp40
I35
aI20
aI8
aI12
aI7
aI8
aI8
aI34
aI5
aI14
aI95
aI19
aI27
aI61
aI4
aI7
aI27
aI32
aI9
aI11
aI13
aI15
aI7
aI13
aI7
aI48
aI95
aI8
aI9
aI6
aI20
aI14
aI34
aI14
aI19
aI13
aI35
aI28
aI27
aI19
aI28
aI9
aI28
aI14
aI75
aI20
aI9
aI20
aI7
aI14
assS'GPY_PCA   '
p41
(dp42
g3
(lp43
I00
aI01
aI00
aI00
aI01
aI00
aI01
aI00
aI00
aI00
aI00
aI01
aI01
aI00
aI01
aI01
aI01
aI00
aI01
aI01
aI01
aI01
aI00
aI01
aI01
aI01
aI01
aI00
aI00
aI00
aI00
aI01
aI01
aI01
aI00
aI01
aI01
aI01
aI00
aI00
aI00
aI01
aI00
aI00
aI00
aI00
aI00
aI00
aI01
aI01
asg5
(lp44
F2.122591018676758
aF1.0928750038146973
aF0.772442102432251
aF0.8235399723052979
aF0.5817630290985107
aF1.0142369270324707
aF1.0739879608154297
aF1.6090409755706787
aF0.5978069305419922
aF0.9957919120788574
aF1.7544729709625244
aF0.9242510795593262
aF1.0622429847717285
aF0.9991550445556641
aF0.7715380191802979
aF0.5633480548858643
aF0.5557899475097656
aF1.0876069068908691
aF3.756235122680664
aF5.985229969024658
aF3.6442670822143555
aF10.39832091331482
aF1.9786701202392578
aF1.1939940452575684
aF0.5768158435821533
aF5.734112024307251
aF2.2285799980163574
aF1.473081111907959
aF0.6859300136566162
aF0.8977818489074707
aF0.6788520812988281
aF0.6267118453979492
aF0.574944019317627
aF1.1678440570831299
aF7.366660833358765
aF0.5744600296020508
aF0.782412052154541
aF0.6547238826751709
aF0.9932661056518555
aF8.215543985366821
aF3.986461877822876
aF1.710461139678955
aF1.149595022201538
aF4.794339179992676
aF1.1063988208770752
aF10.197596073150635
aF2.0719058513641357
aF1.8147509098052979
aF0.5606229305267334
aF1.8503379821777344
asg7
(lp45
F0.12728911089902306
aF0.17873073256204422
aF0.1415323735786723
aF0.13020122815247548
aF0.23915294310983778
aF0.07612678245163827
aF0.19743146442586246
aF0.07560725234317399
aF0.03128023443940329
aF0.058849884748690746
aF0.11078224920485798
aF0.1828000514845669
aF0.11600166866166964
aF0.08889401575305197
aF0.025798307687031674
aF0.07267701805813973
aF0.05661724077812869
aF0.07165304775871541
aF0.14702136599528454
aF0.20980998063816822
aF0.12219137604913737
aF0.17601030855145586
aF0.1809863894088844
aF0.08655566173697068
aF0.11484996913778187
aF0.19537678671431827
aF0.14819904797888422
aF0.08240302409362228
aF0.2065224217627071
aF0.051481340324023746
aF0.25659385103647536
aF0.1130061022918116
aF0.19066505331015074
aF0.13936977510359774
aF0.1809285560616503
aF0.0718617463487953
aF0.11499305208738048
aF0.1960064184269341
aF0.22209134069610945
aF0.13505779949161303
aF0.135482920946312
aF0.05417190054180841
aF0.13407764971298122
aF0.14517460093049456
aF0.10856375781259958
aF0.2040631294481729
aF0.17049370706254854
aF0.12361051144470125
aF0.09784857396916964
aF0.07080192277212004
asg9
(lp46
I18
aI14
aI10
aI10
aI8
aI13
aI14
aI12
aI6
aI13
aI12
aI12
aI14
aI10
aI5
aI8
aI8
aI14
aI35
aI50
aI35
aI94
aI14
aI14
aI8
aI44
aI21
aI14
aI9
aI9
aI9
aI8
aI8
aI15
aI67
aI8
aI10
aI9
aI8
aI81
aI36
aI13
aI10
aI42
aI11
aI86
aI15
aI17
aI8
aI15
asg11
(lp47
I17
aI13
aI9
aI9
aI7
aI12
aI13
aI11
aI5
aI12
aI11
aI11
aI13
aI9
aI4
aI7
aI7
aI13
aI34
aI49
aI34
aI93
aI13
aI13
aI7
aI43
aI20
aI13
aI8
aI8
aI8
aI7
aI7
aI14
aI66
aI7
aI9
aI8
aI7
aI80
aI35
aI12
aI9
aI41
aI10
aI85
aI14
aI16
aI7
aI14
assS'ensemble'
p48
(dp49
g3
(lp50
I00
aI01
aI00
aI00
aI01
aI00
aI01
aI00
aI01
aI00
aI01
aI01
aI01
aI00
aI01
aI01
aI01
aI00
aI01
aI01
aI01
aI01
aI01
aI01
aI01
aI01
aI01
aI00
aI00
aI00
aI00
aI01
aI01
aI01
aI00
aI01
aI01
aI01
aI00
aI00
aI00
aI01
aI01
aI00
aI00
aI00
aI01
aI00
aI01
aI01
asg5
(lp51
F3.833827018737793
aF2.235804796218872
aF1.521697998046875
aF3.946371078491211
aF0.9228100776672363
aF1.4238660335540771
aF1.5236310958862305
aF3.3334221839904785
aF1.122894048690796
aF1.5245370864868164
aF1.4232151508331299
aF1.3311011791229248
aF1.5361249446868896
aF6.7358949184417725
aF0.7205770015716553
aF0.8230907917022705
aF0.621967077255249
aF3.8493080139160156
aF0.8211588859558105
aF0.7187831401824951
aF2.1265439987182617
aF9.446557998657227
aF1.0250461101531982
aF1.7351570129394531
aF1.2368638515472412
aF2.029536008834839
aF2.3288450241088867
aF10.642714977264404
aF1.2268061637878418
aF1.3276991844177246
aF2.436414957046509
aF1.0209829807281494
aF0.9235129356384277
aF1.527231216430664
aF14.27560305595398
aF0.930347204208374
aF1.6243760585784912
aF1.430501937866211
aF4.839338064193726
aF16.878427028656006
aF5.651173830032349
aF0.922166109085083
aF1.6251349449157715
aF11.751091957092285
aF8.540821075439453
aF7.940407037734985
aF1.3248350620269775
aF2.2291901111602783
aF0.8217141628265381
aF0.8223040103912354
asg7
(lp52
F0.20430713397935918
aF0.17873073256204422
aF0.09927310290028102
aF0.1586417098876999
aF0.23275690911656644
aF0.07612678245163827
aF0.19743146442586246
aF0.1055315577093349
aF0.034239149630337425
aF0.06726759413761375
aF0.15964830487903028
aF0.17746734045278953
aF0.11600166866166964
aF0.12614486936245456
aF0.025798455953599465
aF0.07242973947742794
aF0.05333526211154365
aF0.10980797212127048
aF0.17144441040208844
aF0.19748653388974896
aF0.1107664930090817
aF0.17601030855145586
aF0.2546913867297833
aF0.08940097927850757
aF0.11658165777438508
aF0.2223831385635143
aF0.14819904797888422
aF0.08080317197991811
aF0.24196321785560912
aF0.051481340324023746
aF0.2523501609975085
aF0.1130061022918116
aF0.1906826304768731
aF0.136920316464641
aF0.28045585892147246
aF0.0718617463487953
aF0.13172413359791846
aF0.196983434250065
aF0.27399260767807804
aF0.1512161286679067
aF0.14918495675076593
aF0.053270264510117495
aF0.1675645342955908
aF0.12707908999509232
aF0.1528544230151625
aF0.2040631294481729
aF0.2388011440041288
aF0.11417947302191223
aF0.09766352977281222
aF0.07182879240294548
asg9
(lp53
sg11
(lp54
ss.