(dp0
S'NN     '
p1
(dp2
S'successes'
p3
(lp4
I00
aI01
aI00
aI00
aI01
aI01
aI01
aI00
aI00
aI00
aI00
aI01
aI00
aI01
aI01
aI01
aI01
aI00
aI01
aI01
aI01
aI00
aI00
aI01
aI01
aI01
aI00
aI01
aI00
aI00
aI00
aI01
aI01
aI01
aI00
aI01
aI01
aI00
aI00
aI00
aI00
aI01
aI01
aI00
aI00
aI00
aI00
aI00
aI00
aI01
asS'comp_times'
p5
(lp6
F4.479671001434326
aF1.7789268493652344
aF0.7017390727996826
aF2.528921127319336
aF1.6292011737823486
aF8.994236946105957
aF5.059468984603882
aF1.0346240997314453
aF0.6223340034484863
aF1.3033249378204346
aF1.1242640018463135
aF0.8439311981201172
aF0.8408939838409424
aF3.896252155303955
aF0.5077009201049805
aF7.325582027435303
aF1.5678160190582275
aF0.7008910179138184
aF1.0181450843811035
aF1.4543049335479736
aF1.3741700649261475
aF1.8535411357879639
aF1.1021709442138672
aF0.789301872253418
aF1.0034008026123047
aF5.317507982254028
aF2.8585240840911865
aF10.170846939086914
aF1.2878410816192627
aF0.7200479507446289
aF1.024878978729248
aF1.9338979721069336
aF1.9998371601104736
aF1.1113178730010986
aF7.0313191413879395
aF0.8360309600830078
aF6.244921922683716
aF0.9981710910797119
aF0.8823561668395996
aF11.920377016067505
aF6.711432933807373
aF1.2483429908752441
aF5.292311906814575
aF5.177188158035278
aF1.4363298416137695
aF1.8688631057739258
aF1.2570281028747559
aF3.581740140914917
aF1.2953500747680664
aF4.370355129241943
asS'costs'
p7
(lp8
F0.17624272524861867
aF0.16026510896648624
aF0.09690614031659049
aF0.1776532063330076
aF0.21776628318607985
aF0.09382668027829782
aF0.1848037487695963
aF0.14418947711981922
aF0.031278181256213525
aF0.056809352669219576
aF0.11078204360113689
aF0.15861898601374366
aF0.09761308905026672
aF0.1227761120162738
aF0.025798307529278613
aF0.07510734222999481
aF0.06463060427560713
aF0.08128845669124284
aF0.12753991984083937
aF0.19252874229466801
aF0.10903608115314493
aF0.11613893826307198
aF0.20555874873098792
aF0.08623848142079359
aF0.10076482605026693
aF0.18499328736246992
aF0.13874165192321816
aF0.09029032513483316
aF0.2099430900959903
aF0.05148093800777287
aF0.24661902328279414
aF0.11318393939180928
aF0.18994885061080907
aF0.13774309849344823
aF0.23587780584294202
aF0.0644989924243053
aF0.09320352302860435
aF0.19462748831640184
aF0.2177668245811878
aF0.15230315556929624
aF0.146840883260709
aF0.05020749840345412
aF0.1646739105596427
aF0.13621016270816902
aF0.12795639041106951
aF0.16310920166577184
aF0.17048885749480847
aF0.13317173531212362
aF0.09158890177675112
aF0.07272130840994859
asS'func_evals'
p9
(lp10
I36
aI16
aI10
aI27
aI21
aI94
aI49
aI14
aI7
aI10
aI12
aI12
aI9
aI48
aI6
aI68
aI21
aI9
aI14
aI15
aI14
aI12
aI15
aI8
aI14
aI64
aI36
aI120
aI10
aI8
aI14
aI15
aI15
aI15
aI61
aI9
aI75
aI14
aI12
aI120
aI69
aI16
aI56
aI62
aI14
aI20
aI10
aI29
aI14
aI55
asS'qp_solves'
p11
(lp12
I35
aI15
aI9
aI26
aI20
aI93
aI48
aI13
aI6
aI9
aI11
aI11
aI8
aI47
aI5
aI67
aI20
aI8
aI13
aI14
aI13
aI11
aI14
aI7
aI13
aI63
aI35
aI119
aI9
aI7
aI13
aI14
aI14
aI14
aI60
aI8
aI74
aI13
aI11
aI119
aI68
aI15
aI55
aI61
aI13
aI19
aI9
aI28
aI13
aI54
assS'BGMR   '
p13
(dp14
g3
(lp15
I00
aI00
aI00
aI00
aI00
aI00
aI00
aI00
aI00
aI00
aI00
aI00
aI01
aI00
aI01
aI00
aI01
aI00
aI00
aI00
aI00
aI00
aI00
aI01
aI01
aI00
aI00
aI01
aI00
aI01
aI00
aI01
aI00
aI00
aI01
aI01
aI01
aI00
aI00
aI00
aI00
aI01
aI00
aI00
aI00
aI00
aI00
aI00
aI00
aI01
asg5
(lp16
F7.609219074249268
aF1.3751919269561768
aF1.1212718486785889
aF7.102374792098999
aF2.183651924133301
aF0.9117710590362549
aF0.9291658401489258
aF0.5452821254730225
aF1.276508092880249
aF4.5770111083984375
aF1.9811758995056152
aF0.8446950912475586
aF1.392578125
aF3.9421041011810303
aF0.5123348236083984
aF1.0876870155334473
aF0.8924200534820557
aF11.488961935043335
aF0.8350701332092285
aF0.8492209911346436
aF0.9953579902648926
aF1.7123382091522217
aF1.6009128093719482
aF1.8422901630401611
aF0.5063529014587402
aF0.6343197822570801
aF5.654200077056885
aF3.6873021125793457
aF1.1394071578979492
aF6.948551893234253
aF0.9609119892120361
aF0.5115129947662354
aF1.3121421337127686
aF1.530817985534668
aF11.873641967773438
aF0.736224889755249
aF1.0219271183013916
aF0.6040380001068115
aF0.8593649864196777
aF10.371094942092896
aF1.318969964981079
aF0.6987020969390869
aF0.9449920654296875
aF0.6059751510620117
aF0.9319360256195068
aF6.729321002960205
aF1.2163910865783691
aF3.6832449436187744
aF1.1270899772644043
aF1.1801879405975342
asg7
(lp17
F0.21192030962925398
aF0.13345333065880718
aF0.14013632179058402
aF0.26543180710551884
aF0.184878922931397
aF0.08276259621722462
aF0.15743451928978205
aF0.09076268333449371
aF0.031276618629297225
aF0.055438722583627774
aF0.13909092256060082
aF0.13405470708165437
aF0.10928967622565125
aF0.10990313037020782
aF0.025798535974816388
aF0.058620605671077256
aF0.06467537329566725
aF0.12158982471468469
aF0.11605419190217874
aF0.15883733749503365
aF0.09954762608503684
aF0.1504956324506039
aF0.18100386329057297
aF0.08692225872981271
aF0.1117317696983847
aF0.1900562582929246
aF0.13229462549578494
aF0.10650261414862505
aF0.24431972580350197
aF0.0746046845075054
aF0.2077306719106071
aF0.11579251158491566
aF0.15393175577209686
aF0.11917621266397317
aF0.17120910079085794
aF0.06450009179534934
aF0.09959353861441528
aF0.17857894033083796
aF0.2668266830750206
aF0.11893913518318829
aF0.11849272384508124
aF0.06164044144751236
aF0.13407801251050755
aF0.13159292101229347
aF0.10856317827345639
aF0.29120387033567047
aF0.17047912940942497
aF0.12238891779358926
aF0.08630548400744414
aF0.07632634497493111
asg9
(lp18
I60
aI11
aI9
aI62
aI15
aI13
aI10
aI8
aI8
aI40
aI15
aI12
aI14
aI49
aI6
aI9
aI13
aI120
aI9
aI8
aI9
aI15
aI14
aI13
aI8
aI9
aI69
aI34
aI12
aI74
aI13
aI8
aI12
aI9
aI110
aI8
aI14
aI9
aI12
aI110
aI10
aI10
aI10
aI9
aI10
aI66
aI15
aI34
aI11
aI14
asg11
(lp19
I59
aI10
aI8
aI61
aI14
aI12
aI9
aI7
aI7
aI39
aI14
aI11
aI13
aI48
aI5
aI8
aI12
aI119
aI8
aI7
aI8
aI14
aI13
aI12
aI7
aI8
aI68
aI33
aI11
aI73
aI12
aI7
aI11
aI8
aI109
aI7
aI13
aI8
aI11
aI109
aI9
aI9
aI9
aI8
aI9
aI65
aI14
aI33
aI10
aI13
assS'GPY    '
p20
(dp21
g3
(lp22
I00
aI00
aI00
aI00
aI00
aI00
aI00
aI00
aI00
aI00
aI00
aI00
aI00
aI00
aI01
aI01
aI01
aI00
aI01
aI00
aI01
aI00
aI00
aI01
aI00
aI01
aI00
aI00
aI00
aI00
aI00
aI01
aI00
aI00
aI00
aI01
aI01
aI01
aI00
aI00
aI00
aI01
aI00
aI00
aI00
aI00
aI01
aI00
aI00
aI00
asg5
(lp23
F1.7266690731048584
aF1.5733261108398438
aF1.3189349174499512
aF2.115561008453369
aF1.341966152191162
aF0.8705670833587646
aF1.2530360221862793
aF1.2731809616088867
aF0.7945530414581299
aF0.8836669921875
aF8.659459114074707
aF0.7841970920562744
aF0.6965107917785645
aF3.458254098892212
aF0.575124979019165
aF8.122144937515259
aF1.6261470317840576
aF3.846385955810547
aF1.3920719623565674
aF1.8754708766937256
aF1.16575288772583
aF1.28187894821167
aF1.4753949642181396
aF1.584517002105713
aF0.804818868637085
aF0.7883961200714111
aF5.105048894882202
aF0.8963501453399658
aF1.1722221374511719
aF0.9443838596343994
aF0.8035259246826172
aF1.2047889232635498
aF0.7597317695617676
aF1.5992329120635986
aF2.584041118621826
aF1.0568721294403076
aF0.8310360908508301
aF0.6594269275665283
aF0.8006820678710938
aF8.126344919204712
aF1.1712820529937744
aF0.6805510520935059
aF1.7741210460662842
aF4.403577089309692
aF5.689105987548828
aF2.418673038482666
aF5.24452805519104
aF1.5678420066833496
aF1.5699961185455322
aF0.7850720882415771
asg7
(lp24
F0.3169062751893458
aF0.13345361434226338
aF0.077300072356479
aF0.19923564873591088
aF0.1854639453079688
aF0.0603397615322249
aF0.20706424745178684
aF0.07543790915832323
aF0.031277807054642615
aF0.05874298501046201
aF0.16703645440556789
aF0.13760544532592237
aF0.09760513578236309
aF0.12779867317633878
aF0.0257983580099631
aF0.07404964096567249
aF0.06262462104534844
aF0.11475085170785114
aF0.14648238698644633
aF0.17338244475366504
aF0.1264640571951742
aF0.11613902328260217
aF0.2249539891322287
aF0.08669288951115071
aF0.09573906192425212
aF0.17606359740570657
aF0.17527070273579076
aF0.06614466645499198
aF0.24231154890184348
aF0.05147986534956512
aF0.22988948264683828
aF0.11650231934062907
aF0.16317083289819992
aF0.11917288751810685
aF0.24473225499300524
aF0.07997541564527476
aF0.07887881905359163
aF0.19313774942376047
aF0.2381488646927264
aF0.11926287467783851
aF0.16249869722065394
aF0.06492717034197272
aF0.18733118478625885
aF0.1439961548308884
aF0.16035572119190547
aF0.155883344975877
aF0.20331006505956184
aF0.09456956220314768
aF0.08630630731071835
aF0.06350334973025182
asg9
(lp25
I20
aI9
aI14
aI15
aI16
aI9
aI16
aI15
aI8
aI10
aI89
aI10
aI7
aI42
aI6
aI68
aI21
aI37
aI17
aI14
aI9
aI12
aI13
aI14
aI8
aI10
aI62
aI9
aI12
aI8
aI10
aI15
aI10
aI10
aI19
aI14
aI8
aI9
aI10
aI96
aI15
aI9
aI22
aI42
aI69
aI16
aI52
aI13
aI10
aI8
asg11
(lp26
I19
aI8
aI13
aI14
aI15
aI8
aI15
aI14
aI7
aI9
aI88
aI9
aI6
aI41
aI5
aI67
aI20
aI36
aI16
aI13
aI8
aI11
aI12
aI13
aI7
aI9
aI61
aI8
aI11
aI7
aI9
aI14
aI9
aI9
aI18
aI13
aI7
aI8
aI9
aI95
aI14
aI8
aI21
aI41
aI68
aI15
aI51
aI12
aI9
aI7
assS'STD    '
p27
(dp28
g3
(lp29
I00
aI01
aI00
aI00
aI01
aI00
aI00
aI00
aI00
aI00
aI00
aI01
aI01
aI00
aI01
aI01
aI01
aI00
aI01
aI01
aI01
aI00
aI00
aI00
aI01
aI00
aI00
aI00
aI00
aI00
aI00
aI01
aI01
aI01
aI00
aI01
aI01
aI01
aI00
aI00
aI00
aI01
aI00
aI00
aI00
aI00
aI00
aI00
aI01
aI01
asg5
(lp30
F2.8585150241851807
aF11.643530130386353
aF5.804327964782715
aF3.3650832176208496
aF9.363180875778198
aF1.1229009628295898
aF11.4270761013031
aF13.5399169921875
aF0.8183889389038086
aF1.359827995300293
aF9.456639051437378
aF5.955497980117798
aF10.368941068649292
aF10.753819942474365
aF0.7004079818725586
aF14.073359966278076
aF1.0079190731048584
aF3.2577168941497803
aF3.461756944656372
aF11.051485061645508
aF4.903007984161377
aF14.356539964675903
aF4.996634006500244
aF3.02439284324646
aF7.093103885650635
aF13.511625051498413
aF7.096491098403931
aF1.6953458786010742
aF8.15199089050293
aF1.0165560245513916
aF7.715195894241333
aF13.196882009506226
aF13.54417610168457
aF6.2904980182647705
aF8.782992124557495
aF9.860951900482178
aF2.8398430347442627
aF9.130048990249634
aF3.3451180458068848
aF1.7552168369293213
aF13.073097944259644
aF5.507414102554321
aF10.107285022735596
aF12.393812894821167
aF11.738476037979126
aF2.462114095687866
aF2.962141990661621
aF2.7385308742523193
aF13.662256956100464
aF10.895743131637573
asg7
(lp31
F0.24502115466537905
aF0.1674344237387728
aF0.19866590779764204
aF0.22869390550134924
aF0.24427484303245756
aF0.060338135351918454
aF0.20576424005517502
aF0.0854744098098961
aF0.03128011584253729
aF0.04978445004350755
aF0.12261114751294307
aF0.17107298822844832
aF0.1190975349851353
aF0.10235672800514652
aF0.025796988065803206
aF0.07459678986958161
aF0.053329140573018005
aF0.11921383192950202
aF0.2200331514015581
aF0.23945269128954783
aF0.24779041747045993
aF0.12603371110376776
aF0.27255504021636934
aF0.27699685113377004
aF0.12553172737168483
aF0.19576730114771262
aF0.11813846878874298
aF0.07455005380789047
aF0.2961543707740933
aF0.05147706336591612
aF0.2983479668511388
aF0.11488960674223458
aF0.19034334872298517
aF0.14012245967805534
aF0.15952442852337756
aF0.08326441399906019
aF0.17870058559091115
aF0.19416747988607924
aF0.3599071668179442
aF0.10104617181105613
aF0.14233016025015696
aF0.06909790231256552
aF0.16395766447238497
aF0.14152069823378188
aF0.1218859511623785
aF0.18198100333265932
aF0.2746579411736765
aF0.15065848819786296
aF0.10127326062930078
aF0.07840612199069015
asg9
(lp32
I35
aI102
aI53
aI28
aI94
aI12
aI109
aI120
aI9
aI13
aI110
aI59
aI120
aI103
aI8
aI121
aI11
aI29
aI34
aI90
aI42
aI120
aI60
aI37
aI76
aI120
aI83
aI13
aI67
aI9
aI68
aI115
aI109
aI75
aI73
aI101
aI35
aI109
aI39
aI14
aI120
aI67
aI103
aI120
aI103
aI20
aI35
aI33
aI115
aI121
asg11
(lp33
I34
aI101
aI52
aI27
aI93
aI11
aI108
aI119
aI8
aI12
aI109
aI58
aI119
aI102
aI7
aI120
aI10
aI28
aI33
aI89
aI41
aI119
aI59
aI36
aI75
aI119
aI82
aI12
aI66
aI8
aI67
aI114
aI108
aI74
aI72
aI100
aI34
aI108
aI38
aI13
aI119
aI66
aI102
aI119
aI102
aI19
aI34
aI32
aI114
aI120
assS'BGMR_PCA  '
p34
(dp35
g3
(lp36
I00
aI00
aI00
aI00
aI00
aI00
aI00
aI01
aI00
aI00
aI00
aI01
aI01
aI00
aI01
aI01
aI01
aI00
aI00
aI00
aI01
aI00
aI00
aI01
aI01
aI00
aI00
aI00
aI00
aI00
aI00
aI01
aI00
aI00
aI00
aI01
aI01
aI00
aI01
aI00
aI00
aI01
aI00
aI00
aI00
aI00
aI00
aI00
aI01
aI01
asg5
(lp37
F1.5131278038024902
aF0.8463530540466309
aF2.616805076599121
aF1.916971206665039
aF1.0359210968017578
aF0.8990039825439453
aF4.128614902496338
aF2.8667140007019043
aF0.7969591617584229
aF2.423712968826294
aF4.3383190631866455
aF1.2878508567810059
aF1.5028800964355469
aF2.8412349224090576
aF0.5752701759338379
aF9.477753162384033
aF1.0490498542785645
aF1.2413780689239502
aF0.9205160140991211
aF1.3819561004638672
aF1.2961699962615967
aF6.624169111251831
aF1.2323720455169678
aF1.0733730792999268
aF0.9872000217437744
aF0.9227118492126465
aF0.9958310127258301
aF0.8935010433197021
aF1.203913927078247
aF1.0746688842773438
aF1.587623119354248
aF0.9836080074310303
aF1.1318480968475342
aF0.9989140033721924
aF14.521000146865845
aF0.7545130252838135
aF0.93973708152771
aF0.6658570766448975
aF1.3012800216674805
aF12.0938138961792
aF2.7324399948120117
aF0.7676169872283936
aF3.765399932861328
aF1.2157011032104492
aF4.584417104721069
aF1.779932975769043
aF1.628005027770996
aF2.066516876220703
aF0.7091498374938965
aF1.1557788848876953
asg7
(lp38
F0.21815725259001512
aF0.14415834270239739
aF0.17143020548477622
aF0.18504386202026998
aF0.18477987514342253
aF0.06033884515739358
aF0.19958437695522652
aF0.10449224325028929
aF0.0312785611074204
aF0.05513255455817799
aF0.17965494159568762
aF0.19275244843248793
aF0.11368276056515603
aF0.12360172016205907
aF0.02579847113549008
aF0.07794816634848702
aF0.06392957167213807
aF0.10700109461505923
aF0.11605440919583188
aF0.15883733574082967
aF0.11293060927573284
aF0.12925836695586398
aF0.18097759120291634
aF0.10680220406960778
aF0.11590514989645209
aF0.1512778257697962
aF0.15458436437669046
aF0.06614504659508479
aF0.25346596757159634
aF0.05845242190258908
aF0.21371217570139342
aF0.1131339607718021
aF0.1712305805264293
aF0.11917641720837525
aF0.1833893544365189
aF0.08436617183484904
aF0.0788764393635926
aF0.17235930324458115
aF0.2575602651276147
aF0.09954741993443178
aF0.1582319256815057
aF0.061801174929084164
aF0.1790449482571242
aF0.12046450707815408
aF0.16003641316063605
aF0.16406430782165865
aF0.17049319476759084
aF0.09430692711959013
aF0.09813784437140485
aF0.07599743250381494
asg9
(lp39
I19
aI10
aI24
aI14
aI12
aI9
aI50
aI28
aI7
aI29
aI42
aI16
aI15
aI35
aI6
aI115
aI14
aI15
aI9
aI8
aI14
aI56
aI15
aI13
aI13
aI9
aI13
aI8
aI15
aI14
aI14
aI8
aI9
aI9
aI120
aI10
aI9
aI9
aI13
aI120
aI29
aI10
aI36
aI14
aI42
aI21
aI19
aI14
aI8
aI14
asg11
(lp40
I18
aI9
aI23
aI13
aI11
aI8
aI49
aI27
aI6
aI28
aI41
aI15
aI14
aI34
aI5
aI114
aI13
aI14
aI8
aI7
aI13
aI55
aI14
aI12
aI12
aI8
aI12
aI7
aI14
aI13
aI13
aI7
aI8
aI8
aI119
aI9
aI8
aI8
aI12
aI119
aI28
aI9
aI35
aI13
aI41
aI20
aI18
aI13
aI7
aI13
assS'GPY_PCA   '
p41
(dp42
g3
(lp43
I00
aI01
aI00
aI00
aI01
aI00
aI00
aI00
aI01
aI00
aI00
aI01
aI01
aI00
aI01
aI01
aI01
aI00
aI01
aI01
aI01
aI00
aI00
aI01
aI01
aI01
aI00
aI00
aI00
aI00
aI00
aI01
aI01
aI01
aI00
aI01
aI01
aI01
aI00
aI00
aI00
aI01
aI00
aI00
aI00
aI00
aI01
aI00
aI01
aI01
asg5
(lp44
F1.3110718727111816
aF1.1794309616088867
aF2.000636100769043
aF2.3535919189453125
aF1.098372220993042
aF0.8779270648956299
aF1.1637060642242432
aF2.0392301082611084
aF1.3271121978759766
aF2.4248099327087402
aF1.2018060684204102
aF1.2213270664215088
aF1.5117850303649902
aF4.5765440464019775
aF0.5800299644470215
aF7.905663967132568
aF1.0481798648834229
aF0.9973108768463135
aF1.7924411296844482
aF0.7338972091674805
aF1.575469970703125
aF1.2315139770507812
aF0.895190954208374
aF1.061913013458252
aF0.5765888690948486
aF4.366484880447388
aF1.2055621147155762
aF1.5493268966674805
aF1.261483907699585
aF0.6857352256774902
aF0.7983748912811279
aF1.6080751419067383
aF0.9716389179229736
aF1.1993458271026611
aF6.280550003051758
aF1.0524489879608154
aF1.691258192062378
aF0.6654150485992432
aF0.790302038192749
aF7.412652015686035
aF1.1515800952911377
aF2.3450558185577393
aF2.1774749755859375
aF4.603899955749512
aF1.3609960079193115
aF6.0816450119018555
aF1.5178818702697754
aF2.6229019165039062
aF0.9504399299621582
aF1.8341689109802246
asg7
(lp45
F0.18904162219868412
aF0.15236409105146023
aF0.12455392742094068
aF0.16101779256159898
aF0.22917484443414238
aF0.06033854234403799
aF0.19040520269871553
aF0.07541464352550971
aF0.03298667927339928
aF0.07121181889053917
aF0.11078203625974967
aF0.1792996278027863
aF0.11472717721038285
aF0.10320138549203443
aF0.025799298538442265
aF0.07217148018749672
aF0.06413712901696382
aF0.10939788148456964
aF0.13847929091111985
aF0.20130108033314376
aF0.12335062583126329
aF0.116138943482267
aF0.21499420059522917
aF0.08623992728780187
aF0.11157813388151767
aF0.1786917915629604
aF0.10794047327806217
aF0.06614363879207923
aF0.2246552793142095
aF0.05148073664421495
aF0.24098980778463186
aF0.11425208402252905
aF0.19033982510032446
aF0.1352771554634321
aF0.2297718877227047
aF0.08074765729860116
aF0.10114581377981013
aF0.19674718882254036
aF0.22176856849144608
aF0.12183654327345439
aF0.14714539896173437
aF0.06080083496451824
aF0.1646519282839521
aF0.14469519231312059
aF0.11766979438877707
aF0.23765207548021447
aF0.20431630930639627
aF0.12680211163068741
aF0.09564256889144888
aF0.072853487993468
asg9
(lp46
I15
aI15
aI20
aI26
aI14
aI9
aI15
aI16
aI15
aI17
aI12
aI15
aI15
aI56
aI6
aI68
aI14
aI13
aI22
aI8
aI12
aI12
aI12
aI8
aI8
aI52
aI12
aI9
aI10
aI7
aI10
aI15
aI8
aI15
aI47
aI14
aI21
aI9
aI10
aI68
aI9
aI29
aI22
aI42
aI17
aI70
aI19
aI27
aI8
aI14
asg11
(lp47
I14
aI14
aI19
aI25
aI13
aI8
aI14
aI15
aI14
aI16
aI11
aI14
aI14
aI55
aI5
aI67
aI13
aI12
aI21
aI7
aI11
aI11
aI11
aI7
aI7
aI51
aI11
aI8
aI9
aI6
aI9
aI14
aI7
aI14
aI46
aI13
aI20
aI8
aI9
aI67
aI8
aI28
aI21
aI41
aI16
aI69
aI18
aI26
aI7
aI13
assS'ensemble'
p48
(dp49
g3
(lp50
I00
aI01
aI00
aI00
aI01
aI01
aI01
aI01
aI01
aI00
aI00
aI01
aI01
aI01
aI01
aI01
aI01
aI00
aI01
aI01
aI01
aI00
aI00
aI01
aI01
aI01
aI00
aI01
aI00
aI01
aI00
aI01
aI01
aI01
aI01
aI01
aI01
aI01
aI01
aI00
aI00
aI01
aI01
aI00
aI00
aI00
aI01
aI00
aI01
aI01
asg5
(lp51
F7.032881021499634
aF2.1199090480804443
aF2.5253632068634033
aF6.93198299407959
aF1.6208350658416748
aF8.434589862823486
aF4.7298500537872314
aF3.0233309268951416
aF2.3314850330352783
aF5.130205869674683
aF11.1388578414917
aF1.3185279369354248
aF2.221906900405884
aF5.43518590927124
aF0.9170629978179932
aF7.244394063949585
aF1.4222497940063477
aF15.367225885391235
aF1.7280728816986084
aF0.8161101341247559
aF1.3270819187164307
aF5.328811883926392
aF1.720017910003662
aF1.7257661819458008
aF0.9171829223632812
aF1.118990182876587
aF7.75289511680603
aF4.126278877258301
aF2.534623146057129
aF6.731679916381836
aF2.0209829807281494
aF1.2257320880889893
aF0.8187639713287354
aF2.4248039722442627
aF12.76102900505066
aF1.1197450160980225
aF1.224881887435913
aF1.0231380462646484
aF1.8237731456756592
aF13.351794958114624
aF8.237121820449829
aF1.0216419696807861
aF6.435484886169434
aF6.036505937576294
aF8.538532018661499
aF7.236158847808838
aF2.224606990814209
aF3.7291300296783447
aF0.8171629905700684
aF1.5199098587036133
asg7
(lp52
F0.21192219791026554
aF0.15236409105146023
aF0.17143020548477622
aF0.26543180710551884
aF0.22917484443414238
aF0.09382668027829782
aF0.1848037487695963
aF0.10449224325028929
aF0.03298667927339928
aF0.055438722583627774
aF0.16703645440556789
aF0.15861898601374366
aF0.10928967622565125
aF0.1227761120162738
aF0.025798307529278613
aF0.07510734222999481
aF0.06467537329566725
aF0.12158982471468469
aF0.12753991984083937
aF0.20130108033314376
aF0.1264640571951742
aF0.12925836695586398
aF0.18097759120291634
aF0.08623992728780187
aF0.11157813388151767
aF0.17606359740570657
aF0.13229462549578494
aF0.10650261414862505
aF0.25346596757159634
aF0.0746046845075054
aF0.21371217570139342
aF0.11579251158491566
aF0.19033982510032446
aF0.1352771554634321
aF0.17120910079085794
aF0.08436617183484904
aF0.07887881905359163
aF0.19313774942376047
aF0.2575602651276147
aF0.15230315556929624
aF0.146840883260709
aF0.06492717034197272
aF0.1646739105596427
aF0.13621016270816902
aF0.16035572119190547
aF0.23765207548021447
aF0.20431630930639627
aF0.12238891779358926
aF0.09813784437140485
aF0.072853487993468
asg9
(lp53
sg11
(lp54
ss.