(dp0
S'METRIC GPY_PCA'
p1
(dp2
S'successes'
p3
(lp4
I01
aI01
aI01
aI01
aI01
aI01
aI01
aI01
aI00
aI00
aI01
aI01
aI01
aI00
aI00
aI01
aI01
aI01
aI01
aI01
aI01
aI01
aI01
aI01
aI01
aI01
aI01
aI01
aI01
aI01
aI01
aI01
aI01
aI01
aI01
aI00
aI01
aI01
aI01
aI01
aI01
aI01
aI01
aI00
aI01
aI01
aI01
aI00
aI01
aI01
aI01
aI01
aI01
aI01
aI01
aI01
aI00
aI01
aI01
aI01
aI01
aI01
aI01
aI01
aI01
aI01
aI00
aI01
aI01
aI01
aI01
aI01
aI01
aI01
aI01
aI01
aI01
aI01
aI01
aI01
aI01
aI01
aI01
aI01
aI01
aI00
aI00
aI00
aI01
aI01
aI00
aI01
aI01
aI01
aI00
aI01
aI01
aI01
aI00
aI00
aI00
aI00
aI01
aI01
aI01
aI01
aI01
aI01
aI01
aI01
aI01
aI01
aI01
aI01
aI01
aI01
aI01
aI01
aI01
aI01
aI01
aI01
aI01
aI01
aI01
aI01
aI01
aI01
aI01
aI01
aI01
aI01
aI01
aI01
aI01
aI01
aI01
aI01
aI01
aI01
aI01
aI01
aI01
aI01
aI01
aI01
aI01
aI01
aI01
aI01
aI01
aI01
aI01
aI01
aI01
aI01
aI01
aI01
aI01
aI01
aI01
aI01
aI01
aI01
aI00
aI01
aI01
aI01
aI01
aI01
aI00
aI01
aI01
aI01
aI01
aI01
aI01
aI01
aI01
aI01
aI01
aI01
aI01
aI01
aI01
aI01
aI00
aI00
aI01
aI01
aI01
aI01
aI01
aI01
aI00
aI01
aI01
aI01
aI01
aI00
aI01
aI01
aI01
aI00
aI01
aI01
aI01
aI01
aI00
aI01
aI01
aI01
aI01
aI01
aI01
aI01
aI01
aI01
aI00
aI00
aI01
aI01
aI01
aI01
aI01
aI01
aI00
aI01
aI01
aI01
aI01
aI01
aI00
aI00
aI01
aI01
aI00
aI01
aI01
aI01
aI01
aI01
aI00
aI01
aI01
aI01
aI01
aI01
aI01
aI01
asS'comp_times'
p5
(lp6
F0.31368303298950195
aF0.5044000148773193
aF0.5445101261138916
aF0.4098780155181885
aF0.5656070709228516
aF0.6059038639068604
aF0.34383296966552734
aF1.5285100936889648
aF0.9898860454559326
aF0.8441259860992432
aF0.9092459678649902
aF0.2399458885192871
aF0.9349658489227295
aF0.9184060096740723
aF1.1146650314331055
aF0.24065089225769043
aF0.7560329437255859
aF0.5363380908966064
aF0.7124559879302979
aF0.6163640022277832
aF0.37439799308776855
aF0.5587849617004395
aF0.6251339912414551
aF0.8246190547943115
aF0.4485030174255371
aF1.0137908458709717
aF0.4861299991607666
aF1.2039740085601807
aF0.8188250064849854
aF0.5016729831695557
aF0.7162110805511475
aF0.6097719669342041
aF0.5675308704376221
aF0.8951969146728516
aF0.3007960319519043
aF0.8509769439697266
aF0.9057841300964355
aF1.21510910987854
aF0.7027978897094727
aF0.2266700267791748
aF0.45128583908081055
aF0.797076940536499
aF0.42589616775512695
aF1.0068590641021729
aF0.6091370582580566
aF1.4724721908569336
aF0.6305081844329834
aF1.066728115081787
aF1.1398348808288574
aF0.5834391117095947
aF0.5673449039459229
aF0.641200065612793
aF0.7917580604553223
aF0.6957559585571289
aF1.280486822128296
aF0.4941730499267578
aF0.9464080333709717
aF0.5243198871612549
aF0.41660118103027344
aF0.6294608116149902
aF0.5750288963317871
aF0.8179152011871338
aF0.4878981113433838
aF0.9301729202270508
aF0.8237390518188477
aF0.6075701713562012
aF0.7964260578155518
aF0.7964110374450684
aF0.7909150123596191
aF0.9038817882537842
aF0.31849002838134766
aF1.1380610466003418
aF0.7894668579101562
aF0.9109358787536621
aF0.7892129421234131
aF0.6001791954040527
aF0.9575071334838867
aF0.6750240325927734
aF0.8498630523681641
aF0.34671497344970703
aF0.6064181327819824
aF0.5610618591308594
aF0.8967440128326416
aF0.40671491622924805
aF0.5981869697570801
aF1.3277010917663574
aF1.009990930557251
aF0.9196829795837402
aF0.5685770511627197
aF0.492034912109375
aF1.0988059043884277
aF0.34995102882385254
aF0.7051751613616943
aF0.6979291439056396
aF2.00559401512146
aF0.6274139881134033
aF1.2013559341430664
aF0.446774959564209
aF0.4974708557128906
aF0.5394630432128906
aF1.1030809879302979
aF1.07613205909729
aF0.5495481491088867
aF0.5319850444793701
aF0.6795339584350586
aF0.962867021560669
aF0.5698390007019043
aF0.6383070945739746
aF0.5145390033721924
aF0.7455768585205078
aF0.49551892280578613
aF1.4850599765777588
aF0.6106901168823242
aF0.8853929042816162
aF1.5683698654174805
aF0.7213749885559082
aF0.9329819679260254
aF0.8316819667816162
aF0.4824249744415283
aF0.22087311744689941
aF0.6549990177154541
aF0.6119019985198975
aF0.7004408836364746
aF0.31006383895874023
aF0.7799310684204102
aF0.672461986541748
aF0.7726452350616455
aF1.3168439865112305
aF2.3064699172973633
aF0.9466500282287598
aF0.6023359298706055
aF0.45455479621887207
aF0.7459559440612793
aF0.6662368774414062
aF0.9470510482788086
aF1.124614953994751
aF0.47284603118896484
aF0.5371429920196533
aF0.6418609619140625
aF0.5601701736450195
aF0.9894218444824219
aF0.4675900936126709
aF0.8597440719604492
aF0.30778002738952637
aF0.53666090965271
aF0.8993480205535889
aF0.7786681652069092
aF0.33136892318725586
aF0.6195549964904785
aF0.6423749923706055
aF0.35076308250427246
aF0.6048979759216309
aF1.1309099197387695
aF0.48439717292785645
aF0.7061078548431396
aF0.6566348075866699
aF0.4752779006958008
aF0.5706210136413574
aF0.6960930824279785
aF0.5121190547943115
aF0.48966407775878906
aF0.4602060317993164
aF0.9931309223175049
aF1.0035648345947266
aF0.6436519622802734
aF0.374661922454834
aF0.4569120407104492
aF0.8321499824523926
aF1.23500394821167
aF1.214003086090088
aF1.364995002746582
aF1.1948330402374268
aF0.4782249927520752
aF0.35753607749938965
aF0.32323312759399414
aF0.4753129482269287
aF1.0870678424835205
aF0.5416970252990723
aF0.4845161437988281
aF1.0113601684570312
aF0.5545809268951416
aF0.8298518657684326
aF0.349653959274292
aF0.7580339908599854
aF0.5702528953552246
aF1.160404920578003
aF0.6495440006256104
aF0.9032001495361328
aF0.7368957996368408
aF0.708698034286499
aF0.41984987258911133
aF0.5641992092132568
aF1.6900980472564697
aF0.3367800712585449
aF1.0893609523773193
aF0.4571821689605713
aF0.9230079650878906
aF1.1883649826049805
aF0.8635199069976807
aF1.4471280574798584
aF0.6309988498687744
aF0.4727351665496826
aF0.6153049468994141
aF0.674846887588501
aF0.5037479400634766
aF0.6308369636535645
aF0.47497010231018066
aF0.4961271286010742
aF0.9371140003204346
aF0.8388378620147705
aF0.64369797706604
aF1.0147368907928467
aF0.8746330738067627
aF0.8867402076721191
aF0.7807669639587402
aF0.7527499198913574
aF0.4400908946990967
aF0.8839399814605713
aF0.9903099536895752
aF1.059061050415039
aF0.7874350547790527
aF0.8244199752807617
aF0.41754889488220215
aF0.5904169082641602
aF0.6518270969390869
aF1.1243460178375244
aF1.1488230228424072
aF0.6788280010223389
aF0.4780118465423584
aF0.47791290283203125
aF0.5245370864868164
aF0.6084690093994141
aF1.5804758071899414
aF1.125558853149414
aF0.8112139701843262
aF0.5576169490814209
aF1.154062032699585
aF0.29962801933288574
aF0.8691809177398682
aF0.5619280338287354
aF1.7612311840057373
aF0.7301180362701416
aF0.9753880500793457
aF0.3354191780090332
aF0.9857199192047119
aF0.308459997177124
aF0.3452329635620117
aF0.6715269088745117
aF0.6412320137023926
aF0.6464560031890869
asS'costs'
p7
(lp8
F1.7659492095077312
aF0.33039519078904744
aF1.957153581684581
aF1.232491282108508
aF1.5390133196486708
aF1.0926763618047006
aF1.7569523665852576
aF1.7590327539683535
aF2.2086764358588624
aF1.334188849450278
aF1.4303133343299974
aF2.496160389981346
aF0.6186087402150677
aF3.6206592681593324
aF1.0221344248414244
aF1.7403929746590914
aF1.3333853021833049
aF1.3046349266717374
aF1.4020649953234643
aF2.306340953551723
aF1.8044666929923385
aF2.096585744237357
aF1.198586490955964
aF1.2796411756766424
aF0.31067116962026486
aF1.4333442760103852
aF1.3151883687620203
aF1.193419780550192
aF2.212350480689056
aF0.5265228790214261
aF1.1208629621218
aF1.4605747644066662
aF1.9459970376517532
aF0.8429001682212529
aF1.200374142336213
aF1.9441891171009409
aF1.1363721397009812
aF1.660076465675098
aF1.8880367892521492
aF1.1788197637562874
aF1.9877784982883302
aF1.3830171988616835
aF1.0856366342976407
aF1.5228682832147487
aF1.9179984049719596
aF0.9468562092977901
aF1.0841042652040689
aF1.834498165046712
aF1.8143993615746103
aF2.2496103718065883
aF1.0880096146358513
aF2.4934941216589985
aF2.324376997163939
aF1.6549331841406858
aF1.577479255721749
aF0.8087752786060386
aF1.0230631297609398
aF1.710699032644106
aF1.2988761000525495
aF1.2085982200996357
aF1.3878491923564882
aF1.4256774264563883
aF1.4709664187383
aF1.4861972664853234
aF1.267635882082138
aF1.4674540975242105
aF1.836650699296134
aF2.6702242728696315
aF1.4517968444851774
aF1.7559060281491279
aF0.7370622153176191
aF1.5360837991055791
aF1.1529411564383374
aF1.806585992327553
aF2.1866372651155404
aF1.8444084821707911
aF1.631211510632406
aF1.7250842033608988
aF1.7974234004953935
aF1.630847464407117
aF1.4274921962498515
aF1.1182673923493291
aF1.6634425233217194
aF1.0745700277097814
aF1.15582290845513
aF1.781704556228518
aF0.4794999106353788
aF1.4087974108192547
aF2.429116770393139
aF1.5021660128307723
aF0.9996300620067924
aF1.8347925780625427
aF2.3913416190907344
aF1.792301180590346
aF3.304616367470458
aF1.5656855833666665
aF1.8299513085675156
aF1.8483573394538633
aF2.4119520359510713
aF2.1144554607853214
aF2.4612311355586542
aF0.48350815865408997
aF1.3681631470600888
aF0.28174803600048626
aF1.9028030025311786
aF0.46303023050909625
aF1.1503157623071274
aF2.134476897892784
aF1.3716838511655995
aF1.908998772858602
aF1.8366538307000584
aF1.621964043441219
aF0.5316363574104256
aF1.357542994140978
aF2.021853039531138
aF0.57962785098121
aF2.471862869052208
aF1.538808463209855
aF1.4832723877484002
aF1.1217234047406213
aF1.6950396007227881
aF1.083830129655073
aF1.293955515530133
aF1.1017371347485019
aF2.083610902135945
aF1.2991955618141915
aF1.8547568301643371
aF0.830140676132099
aF0.9617569872542873
aF1.5239302540160733
aF1.8010852538417224
aF1.349365702215277
aF1.3918226317259899
aF2.1674459330423037
aF2.2787802046894954
aF1.8457374932563457
aF1.9905135583348175
aF1.3586003638198711
aF1.3952600610030559
aF0.6991739006506275
aF1.5330226303236585
aF1.9152634007508624
aF0.3579552959398498
aF2.152202878449202
aF1.3186254267836386
aF1.259092687230003
aF2.0143463664786254
aF1.8408265376919566
aF1.9607843060425372
aF1.5335927889586505
aF1.0117190088317007
aF0.3899997661995834
aF1.8165622427795074
aF1.8066157490139825
aF2.3333580449020226
aF1.518625688482552
aF1.7904711108787352
aF2.95895675682026
aF1.5088284810479824
aF1.7914070375120625
aF1.1737806826512398
aF2.134633225851381
aF1.0877424524588268
aF2.0408907967216243
aF3.258177952429652
aF0.25408281750865447
aF1.003860031627094
aF1.1055220932907157
aF1.2779727164704289
aF1.5885541259547944
aF0.6787564281363672
aF0.9476491116059512
aF1.7506167569661109
aF0.301339438442963
aF0.3646832102412254
aF1.0420194190632566
aF2.362186367826711
aF0.24717498779864697
aF1.140532469433836
aF1.3159733440794792
aF1.326353230566889
aF0.7839129070894488
aF1.6263809009911112
aF1.6197346646889095
aF0.4762233889075708
aF1.655073700323594
aF0.5211513185758746
aF1.2603638788250857
aF1.2998988579954946
aF2.991189728339169
aF1.6629759211379505
aF2.596164043794782
aF1.6351243760107226
aF1.8301740277457996
aF0.7290276446613174
aF1.8463787182117464
aF1.03722292962086
aF1.1337714229770746
aF1.0488508125479414
aF4.148179397792736
aF1.0884024564168655
aF2.2109155879930253
aF0.39124249899602176
aF2.2001667603171438
aF1.8640014100811102
aF1.7904520478151846
aF1.2638989459384598
aF1.2242746181383375
aF3.4622570915312814
aF1.6408603479999242
aF1.942083398787397
aF1.2904311735405203
aF2.1691763446157566
aF1.9461810804311626
aF1.5228127548141352
aF0.5669717021545131
aF0.3508412347403573
aF1.506756162593665
aF1.1882112406110716
aF0.9535855682610584
aF1.1886859220059012
aF1.52471018285085
aF1.7442506288292716
aF1.319091736892399
aF1.3459527460101126
aF1.0151200182231628
aF1.7612422864181079
aF1.1547196699602198
aF1.2729527645408567
aF2.934871604425807
aF2.380297768428585
aF1.3454639331589793
aF0.7838674131331127
aF0.7495281404926635
aF1.1356564812971601
aF1.019808248986227
aF1.5164945053010526
aF2.5494610012595054
aF0.3605402871233791
aF2.696543727972083
aF1.5542775332128047
aF1.3910951506951046
aF1.1936278472939386
aF0.23679963798083334
aF0.46426949447217486
aF1.9402884138911864
aF1.7758053398870002
aF1.6915092238820006
aF1.588164736304793
aF1.9622631764209923
asS'func_evals'
p9
(lp10
I6
aI8
aI9
aI7
aI10
aI11
aI3
aI24
aI16
aI15
aI14
aI3
aI15
aI14
aI17
aI4
aI12
aI9
aI12
aI12
aI6
aI9
aI10
aI13
aI8
aI16
aI8
aI21
aI12
aI8
aI12
aI10
aI9
aI14
aI5
aI12
aI15
aI17
aI12
aI4
aI7
aI13
aI7
aI16
aI9
aI22
aI10
aI17
aI19
aI10
aI9
aI9
aI13
aI13
aI21
aI9
aI17
aI9
aI7
aI10
aI9
aI13
aI6
aI15
aI13
aI10
aI12
aI12
aI13
aI16
aI6
aI17
aI13
aI15
aI13
aI10
aI12
aI12
aI13
aI5
aI10
aI9
aI15
aI7
aI10
aI16
aI15
aI16
aI7
aI8
aI17
aI6
aI7
aI12
aI20
aI10
aI20
aI7
aI8
aI9
aI14
aI16
aI9
aI9
aI12
aI15
aI10
aI9
aI9
aI13
aI9
aI26
aI10
aI14
aI26
aI12
aI14
aI9
aI8
aI3
aI10
aI10
aI12
aI6
aI13
aI12
aI12
aI14
aI36
aI16
aI10
aI8
aI13
aI12
aI17
aI10
aI9
aI8
aI10
aI10
aI16
aI8
aI12
aI5
aI9
aI16
aI8
aI5
aI9
aI10
aI5
aI10
aI17
aI7
aI12
aI10
aI9
aI10
aI12
aI10
aI8
aI6
aI15
aI16
aI9
aI5
aI8
aI13
aI12
aI20
aI20
aI17
aI8
aI6
aI6
aI8
aI19
aI9
aI6
aI10
aI10
aI14
aI6
aI11
aI9
aI19
aI12
aI14
aI14
aI14
aI7
aI9
aI25
aI4
aI17
aI7
aI14
aI20
aI14
aI21
aI11
aI8
aI10
aI10
aI10
aI11
aI8
aI8
aI16
aI12
aI10
aI15
aI13
aI11
aI13
aI12
aI8
aI14
aI16
aI16
aI6
aI12
aI7
aI9
aI10
aI17
aI19
aI10
aI8
aI8
aI9
aI9
aI16
aI17
aI14
aI9
aI15
aI5
aI15
aI10
aI17
aI12
aI16
aI6
aI16
aI4
aI5
aI10
aI10
aI10
asS'qp_solves'
p11
(lp12
I5
aI7
aI8
aI6
aI9
aI10
aI2
aI23
aI15
aI14
aI13
aI2
aI14
aI13
aI16
aI3
aI11
aI8
aI11
aI11
aI5
aI8
aI9
aI12
aI7
aI15
aI7
aI20
aI11
aI7
aI11
aI9
aI8
aI13
aI4
aI11
aI14
aI16
aI11
aI3
aI6
aI12
aI6
aI15
aI8
aI21
aI9
aI16
aI18
aI9
aI8
aI8
aI12
aI12
aI20
aI8
aI16
aI8
aI6
aI9
aI8
aI12
aI5
aI14
aI12
aI9
aI11
aI11
aI12
aI15
aI5
aI16
aI12
aI14
aI12
aI9
aI11
aI11
aI12
aI4
aI9
aI8
aI14
aI6
aI9
aI15
aI14
aI15
aI6
aI7
aI16
aI5
aI6
aI11
aI19
aI9
aI19
aI6
aI7
aI8
aI13
aI15
aI8
aI8
aI11
aI14
aI9
aI8
aI8
aI12
aI8
aI25
aI9
aI13
aI25
aI11
aI13
aI8
aI7
aI2
aI9
aI9
aI11
aI5
aI12
aI11
aI11
aI13
aI35
aI15
aI9
aI7
aI12
aI11
aI16
aI9
aI8
aI7
aI9
aI9
aI15
aI7
aI11
aI4
aI8
aI15
aI7
aI4
aI8
aI9
aI4
aI9
aI16
aI6
aI11
aI9
aI8
aI9
aI11
aI9
aI7
aI5
aI14
aI15
aI8
aI4
aI7
aI12
aI11
aI19
aI19
aI16
aI7
aI5
aI5
aI7
aI18
aI8
aI5
aI9
aI9
aI13
aI5
aI10
aI8
aI18
aI11
aI13
aI13
aI13
aI6
aI8
aI24
aI3
aI16
aI6
aI13
aI19
aI13
aI20
aI10
aI7
aI9
aI9
aI9
aI10
aI7
aI7
aI15
aI11
aI9
aI14
aI12
aI10
aI12
aI11
aI7
aI13
aI15
aI15
aI5
aI11
aI6
aI8
aI9
aI16
aI18
aI9
aI7
aI7
aI8
aI8
aI15
aI16
aI13
aI8
aI14
aI4
aI14
aI9
aI16
aI11
aI15
aI5
aI15
aI3
aI4
aI9
aI9
aI9
assS'GPY_PCA'
p13
(dp14
g3
(lp15
I01
aI01
aI00
aI01
aI01
aI01
aI01
aI00
aI01
aI01
aI00
aI01
aI01
aI01
aI01
aI01
aI01
aI00
aI00
aI01
aI01
aI01
aI01
aI01
aI00
aI00
aI01
aI00
aI00
aI01
aI00
aI01
aI00
aI00
aI00
aI01
aI01
aI01
aI00
aI01
aI01
aI00
aI01
aI01
aI01
aI00
aI01
aI00
aI01
aI00
aI01
aI01
aI01
aI01
aI01
aI01
aI00
aI01
aI00
aI01
aI01
aI00
aI01
aI00
aI01
aI01
aI01
aI01
aI01
aI01
aI00
aI01
aI00
aI01
aI00
aI01
aI01
aI01
aI01
aI01
aI01
aI01
aI01
aI00
aI01
aI01
aI00
aI00
aI01
aI00
aI01
aI01
aI00
aI01
aI00
aI01
aI01
aI00
aI00
aI00
aI00
aI00
aI01
aI01
aI01
aI01
aI01
aI01
aI01
aI00
aI01
aI00
aI01
aI01
aI00
aI01
aI01
aI01
aI01
aI01
aI00
aI00
aI01
aI00
aI00
aI00
aI00
aI00
aI00
aI01
aI00
aI01
aI01
aI01
aI01
aI01
aI01
aI01
aI01
aI01
aI01
aI01
aI01
aI01
aI01
aI01
aI01
aI00
aI01
aI01
aI00
aI01
aI00
aI00
aI01
aI01
aI00
aI01
aI00
aI01
aI00
aI00
aI00
aI01
aI01
aI01
aI01
aI00
aI01
aI00
aI00
aI01
aI01
aI01
aI01
aI01
aI00
aI01
aI01
aI01
aI01
aI01
aI01
aI00
aI01
aI01
aI01
aI00
aI01
aI00
aI01
aI01
aI00
aI01
aI00
aI01
aI01
aI00
aI01
aI01
aI01
aI01
aI01
aI01
aI01
aI00
aI01
aI01
aI01
aI01
aI01
aI01
aI01
aI00
aI01
aI00
aI00
aI00
aI00
aI01
aI01
aI01
aI01
aI01
aI01
aI01
aI01
aI00
aI01
aI00
aI00
aI01
aI00
aI00
aI01
aI01
aI00
aI01
aI00
aI01
aI00
aI01
aI00
aI01
aI01
aI01
aI01
aI00
aI01
aI01
asg5
(lp16
F0.9823698997497559
aF1.442828893661499
aF3.7869110107421875
aF2.837196111679077
aF1.0677180290222168
aF4.0643250942230225
aF0.9464678764343262
aF2.206676959991455
aF2.8638498783111572
aF1.1646618843078613
aF1.0730011463165283
aF1.0361509323120117
aF1.789444923400879
aF1.9006788730621338
aF2.114459991455078
aF1.9612290859222412
aF1.5401079654693604
aF2.0809872150421143
aF6.111814975738525
aF0.6012821197509766
aF0.7667090892791748
aF1.327629804611206
aF1.0921058654785156
aF1.017651081085205
aF1.6551039218902588
aF3.093071222305298
aF1.1998941898345947
aF2.979098081588745
aF2.592388153076172
aF2.074551820755005
aF1.3175289630889893
aF3.403514862060547
aF4.128997087478638
aF7.237766981124878
aF1.3645620346069336
aF1.2588038444519043
aF1.6908230781555176
aF1.9637830257415771
aF1.2269489765167236
aF0.60701584815979
aF1.400277853012085
aF5.611785888671875
aF0.8800301551818848
aF2.8594000339508057
aF1.511476993560791
aF2.445389986038208
aF0.8444781303405762
aF4.299625873565674
aF1.6175689697265625
aF5.616756916046143
aF0.802191972732544
aF1.3557100296020508
aF1.2133889198303223
aF2.9022531509399414
aF1.443187952041626
aF1.4782540798187256
aF4.313567876815796
aF2.2762720584869385
aF4.259801864624023
aF1.5121819972991943
aF1.9977970123291016
aF1.1074259281158447
aF2.085793972015381
aF1.5618929862976074
aF1.6079349517822266
aF1.198369026184082
aF1.1265180110931396
aF2.0402510166168213
aF0.7677731513977051
aF0.9282059669494629
aF3.083561897277832
aF0.9991791248321533
aF0.958704948425293
aF1.2049219608306885
aF3.4453868865966797
aF1.7592360973358154
aF1.330306053161621
aF1.1414740085601807
aF1.3882019519805908
aF2.6019179821014404
aF3.7527668476104736
aF2.202200174331665
aF0.8782200813293457
aF3.337813138961792
aF2.080826997756958
aF3.0059409141540527
aF1.6287829875946045
aF3.544092893600464
aF0.8830850124359131
aF1.2442891597747803
aF1.9309499263763428
aF0.9679460525512695
aF3.1212010383605957
aF0.8186860084533691
aF4.907515048980713
aF1.102921962738037
aF4.142431974411011
aF2.381114959716797
aF2.0466220378875732
aF3.8802361488342285
aF1.6903111934661865
aF0.9159510135650635
aF1.0771291255950928
aF2.523282051086426
aF1.2327690124511719
aF1.7749640941619873
aF1.5522119998931885
aF2.5632638931274414
aF1.02970290184021
aF5.837023973464966
aF0.9293270111083984
aF4.083506107330322
aF1.5105020999908447
aF2.572939872741699
aF1.6909489631652832
aF1.768960952758789
aF0.9340410232543945
aF2.1718499660491943
aF1.1982731819152832
aF1.9025490283966064
aF7.184865951538086
aF1.4667859077453613
aF1.025179147720337
aF1.3449270725250244
aF0.8754401206970215
aF3.0842180252075195
aF4.965451002120972
aF2.5640718936920166
aF4.0205419063568115
aF1.439805030822754
aF2.4029312133789062
aF0.872575044631958
aF1.6257529258728027
aF2.3726139068603516
aF1.4006681442260742
aF1.0539121627807617
aF1.433643102645874
aF0.8261330127716064
aF4.157572984695435
aF1.00856614112854
aF1.0638909339904785
aF0.8723680973052979
aF0.9992220401763916
aF1.7840960025787354
aF1.0349140167236328
aF0.7899961471557617
aF1.2055120468139648
aF1.1936228275299072
aF1.826214075088501
aF1.1627237796783447
aF4.126957893371582
aF3.942201852798462
aF1.0995080471038818
aF0.7293660640716553
aF1.0770480632781982
aF0.7117648124694824
aF1.467574119567871
aF2.29056715965271
aF3.6222150325775146
aF1.2534639835357666
aF3.72885799407959
aF1.152519941329956
aF2.7556638717651367
aF1.1373438835144043
aF3.685353994369507
aF0.793597936630249
aF1.229914903640747
aF4.696343183517456
aF1.0034592151641846
aF5.208713054656982
aF5.894819974899292
aF0.9517350196838379
aF1.263221025466919
aF0.8714380264282227
aF2.3126299381256104
aF3.293997049331665
aF4.675831079483032
aF0.8242440223693848
aF0.8349850177764893
aF1.0710649490356445
aF6.573482990264893
aF1.092543125152588
aF0.9071090221405029
aF1.1399259567260742
aF0.9539308547973633
aF0.6603291034698486
aF2.672515869140625
aF2.7633309364318848
aF0.8607790470123291
aF1.1319429874420166
aF1.2565579414367676
aF2.6365530490875244
aF3.9704439640045166
aF1.6063690185546875
aF4.380987882614136
aF2.770395040512085
aF1.1209838390350342
aF4.534031867980957
aF1.0253839492797852
aF2.7720768451690674
aF0.9770939350128174
aF1.0395419597625732
aF1.3908720016479492
aF0.9713990688323975
aF0.9805967807769775
aF2.2267580032348633
aF1.0489821434020996
aF1.0701677799224854
aF3.4823739528656006
aF2.38333797454834
aF4.023560047149658
aF1.0498712062835693
aF1.0841379165649414
aF1.688990831375122
aF4.049500942230225
aF1.03397798538208
aF1.5987319946289062
aF1.6654751300811768
aF5.246721029281616
aF2.715273141860962
aF1.5168960094451904
aF1.873560905456543
aF0.7837741374969482
aF1.249054193496704
aF5.062587022781372
aF1.3973519802093506
aF2.9985430240631104
aF2.6851460933685303
aF2.410444974899292
aF4.135390043258667
aF1.5739920139312744
aF1.1292760372161865
aF2.2833688259124756
aF4.054476976394653
aF0.6558248996734619
aF1.600027084350586
aF0.8254339694976807
aF1.3648309707641602
aF1.929636001586914
aF1.058823823928833
aF3.9613211154937744
aF0.7768089771270752
aF4.101405143737793
aF2.0291450023651123
aF1.9628558158874512
aF0.7950410842895508
aF3.870181083679199
aF4.526620864868164
aF3.4334158897399902
aF1.792240858078003
asg7
(lp17
F1.7418271239141006
aF0.378453086335455
aF3.344980554027621
aF1.2225618601616755
aF2.4095659244008654
aF2.0769760126262278
aF3.2421862314993866
aF1.1245129426335272
aF2.8241192972060496
aF1.284279873503773
aF3.3135080854892673
aF2.5166459140270883
aF0.5947484143484981
aF2.867983059581253
aF0.8921641104140136
aF2.7333782415423458
aF2.086045989918355
aF0.6210209507885507
aF2.2462997974875356
aF3.471975951495673
aF3.2581512765791416
aF2.1078415053454767
aF0.5380183651414652
aF1.9242468173290088
aF0.2260349287228645
aF2.289031508550809
aF1.783245477769557
aF2.766407890362348
aF2.2339653821336833
aF0.49039448399043006
aF1.862649131069612
aF0.5554426354452506
aF6.6299933193311675
aF4.435978787598707
aF0.4294796455554993
aF1.0212100847463796
aF1.4814774343175123
aF1.878682394730223
aF3.194018078430226
aF1.1348294371599368
aF1.9638008040373196
aF3.1831823188725457
aF2.64661221347849
aF0.7397311701698164
aF1.8193948494385268
aF1.0628315230446692
aF1.2354273178092434
aF2.446629708972749
aF1.1129856274976764
aF4.4906654713412015
aF1.0741725654056309
aF3.3743680650535026
aF2.341257464926053
aF1.5915709607086488
aF1.6052197223569942
aF0.7361856934436461
aF2.6424373063936275
aF3.126463858451474
aF1.0112639086053783
aF1.0685107143679349
aF2.2332244044740586
aF0.9215313291269009
aF2.4992322601369468
aF2.408386819537554
aF2.114026202716051
aF2.4236683150367897
aF1.7890929514249594
aF2.6682623737277873
aF2.1167879675777024
aF1.7449358131913573
aF0.7236896756977804
aF1.4955765706942246
aF1.9659355974892974
aF2.2362470107709824
aF3.90318003222981
aF2.58136608284762
aF2.2526896971253976
aF1.6282913426907415
aF3.2824686494496222
aF2.6711307462353457
aF1.332616848956253
aF1.098788064727937
aF1.6134252378223772
aF1.9904362991814812
aF2.378116544840771
aF2.2609865019999296
aF0.4165586552508463
aF1.2036132600377565
aF2.330230803398695
aF2.238572987904356
aF0.8932732729914764
aF1.9572171087377706
aF3.9175479385462055
aF1.8133303953564335
aF2.769030983683212
aF2.5249200783830408
aF1.9595421615841768
aF2.4218512453397554
aF1.130013342800872
aF2.344024550709634
aF1.7803011000985085
aF0.4983002003019243
aF1.3889709457240405
aF0.2737557094362797
aF1.8457880797249104
aF1.1729640327227429
aF1.0152964009766516
aF1.918105092932986
aF1.3051247884594515
aF3.056474933150246
aF1.838702456892175
aF3.947712979745098
aF0.4262378243250018
aF1.3627023503565048
aF2.526523720227052
aF0.5633409451218976
aF2.425775655200703
aF1.6484257777786497
aF1.4014050941511909
aF1.7752388133570545
aF1.6611787949528696
aF2.8018891576518175
aF1.8679589229887783
aF0.3464029878218106
aF1.9518226212982117
aF4.7837584171188405
aF2.5484000413752246
aF0.9557891924487816
aF1.7524772308397898
aF1.2852738957336052
aF2.833386328798363
aF2.1994453337179833
aF0.601351910156004
aF3.1918850888355954
aF2.2134959943532393
aF2.5669429099912144
aF1.9182002709777275
aF3.0753383792071385
aF1.760155528370175
aF0.4608599510124381
aF1.4812183775428274
aF1.9448374285709817
aF0.35097707294667785
aF1.2020846738978
aF1.448888702772205
aF1.8043865897298283
aF3.078336891103028
aF2.571409613025557
aF3.006220129564262
aF1.4787456026008652
aF2.835847878531513
aF0.405503257127892
aF1.9930163006493258
aF2.6356233932357322
aF3.2650344494017993
aF1.511189186607091
aF1.1510511195630995
aF3.781264126342142
aF4.0974388620347755
aF0.9119657900322533
aF4.457446252419055
aF2.461369822159166
aF2.421861520252507
aF2.2237552537959364
aF3.037780098619147
aF0.2604011135725716
aF1.5802038346964455
aF0.27339263773640093
aF2.1184757769297815
aF3.496843405153717
aF2.607113455312693
aF1.4345622076884674
aF1.5814306033868326
aF0.9819106000524798
aF0.37779662249085527
aF2.442846800695854
aF4.366966320923745
aF0.24305819468601847
aF2.5404561429410317
aF1.8911666485958956
aF0.6923344856675194
aF1.4624244116675302
aF2.792120750713815
aF0.6872465719578659
aF1.1487013112283462
aF1.2587477018173199
aF0.6285826232799103
aF1.0138315083891474
aF2.557213849842514
aF3.6143810186008456
aF2.1298934005119854
aF2.366006265634228
aF2.8514452583142433
aF1.7386821105786636
aF3.9807500287265984
aF2.7604091459632576
aF0.8266176434464954
aF1.8886272446331143
aF1.0288612988418837
aF1.793798014050976
aF1.01847236178932
aF1.2481745570483769
aF0.38594474601306794
aF1.703077085521462
aF2.8426840011785806
aF2.180455345716238
aF1.274050330015424
aF3.123864462037383
aF2.215391758704236
aF3.227318868854674
aF2.960069933820498
aF1.2696637493053577
aF2.210652495371631
aF2.668359451886076
aF1.467265607013621
aF0.5811323400969258
aF0.40106810720767816
aF2.956323932786263
aF1.2122488147811865
aF0.8081591633764522
aF2.782994730040591
aF2.426594045863637
aF1.7011120730792202
aF1.204174385416401
aF2.8053353740138953
aF1.7095283627506903
aF0.6677226459312774
aF0.9279082291602636
aF1.2328665805244765
aF1.8524484894870552
aF2.249279344686486
aF1.2131467788081995
aF3.043924228822047
aF0.6843114658707744
aF1.0285127649866272
aF0.9825584455577747
aF1.4228903032558462
aF2.5308094669893952
aF0.45414070353708685
aF2.5934842163397334
aF1.9803384112053068
aF1.387284189849449
aF0.7530995498829535
aF0.22262993310730442
aF0.9862488388291296
aF2.5666528740608068
aF1.008980022324293
aF2.867640709163343
aF2.5650756012483096
aF3.245490746719684
asg9
(lp18
I17
aI21
aI36
aI49
aI17
aI51
aI16
aI31
aI41
aI17
aI15
aI15
aI15
aI25
aI33
aI20
aI24
aI28
aI96
aI9
aI9
aI21
aI17
aI14
aI28
aI52
aI13
aI44
aI36
aI31
aI20
aI36
aI68
aI98
aI22
aI15
aI16
aI16
aI19
aI8
aI20
aI74
aI14
aI43
aI21
aI34
aI13
aI52
aI23
aI80
aI10
aI20
aI19
aI47
aI20
aI16
aI58
aI35
aI58
aI22
aI30
aI17
aI21
aI24
aI22
aI18
aI19
aI32
aI11
aI14
aI52
aI14
aI14
aI17
aI47
aI25
aI22
aI18
aI21
aI34
aI67
aI30
aI13
aI53
aI34
aI46
aI24
aI56
aI14
aI14
aI31
aI15
aI41
aI13
aI60
aI16
aI53
aI36
aI22
aI46
aI22
aI14
aI16
aI41
aI20
aI28
aI19
aI37
aI16
aI87
aI12
aI51
aI24
aI39
aI26
aI23
aI14
aI29
aI20
aI27
aI100
aI21
aI15
aI23
aI14
aI49
aI56
aI38
aI49
aI21
aI34
aI14
aI24
aI20
aI22
aI15
aI15
aI15
aI67
aI16
aI15
aI13
aI15
aI24
aI16
aI11
aI20
aI18
aI28
aI10
aI78
aI60
aI16
aI9
aI14
aI10
aI25
aI23
aI40
aI15
aI52
aI17
aI37
aI16
aI43
aI9
aI18
aI68
aI15
aI80
aI79
aI14
aI21
aI14
aI38
aI41
aI65
aI9
aI7
aI15
aI104
aI17
aI13
aI17
aI14
aI10
aI42
aI42
aI15
aI14
aI20
aI41
aI52
aI23
aI70
aI43
aI16
aI69
aI15
aI38
aI15
aI16
aI19
aI15
aI14
aI34
aI16
aI11
aI55
aI33
aI67
aI14
aI15
aI22
aI60
aI15
aI25
aI17
aI68
aI39
aI15
aI27
aI13
aI18
aI85
aI20
aI46
aI39
aI38
aI64
aI21
aI15
aI36
aI54
aI10
aI22
aI12
aI13
aI24
aI17
aI56
aI12
aI64
aI25
aI31
aI11
aI40
aI70
aI53
aI30
asg11
(lp19
I16
aI20
aI35
aI48
aI16
aI50
aI15
aI30
aI40
aI16
aI14
aI14
aI14
aI24
aI32
aI19
aI23
aI27
aI95
aI8
aI8
aI20
aI16
aI13
aI27
aI51
aI12
aI43
aI35
aI30
aI19
aI35
aI67
aI97
aI21
aI14
aI15
aI15
aI18
aI7
aI19
aI73
aI13
aI42
aI20
aI33
aI12
aI51
aI22
aI79
aI9
aI19
aI18
aI46
aI19
aI15
aI57
aI34
aI57
aI21
aI29
aI16
aI20
aI23
aI21
aI17
aI18
aI31
aI10
aI13
aI51
aI13
aI13
aI16
aI46
aI24
aI21
aI17
aI20
aI33
aI66
aI29
aI12
aI52
aI33
aI45
aI23
aI55
aI13
aI13
aI30
aI14
aI40
aI12
aI59
aI15
aI52
aI35
aI21
aI45
aI21
aI13
aI15
aI40
aI19
aI27
aI18
aI36
aI15
aI86
aI11
aI50
aI23
aI38
aI25
aI22
aI13
aI28
aI19
aI26
aI99
aI20
aI14
aI22
aI13
aI48
aI55
aI37
aI48
aI20
aI33
aI13
aI23
aI19
aI21
aI14
aI14
aI14
aI66
aI15
aI14
aI12
aI14
aI23
aI15
aI10
aI19
aI17
aI27
aI9
aI77
aI59
aI15
aI8
aI13
aI9
aI24
aI22
aI39
aI14
aI51
aI16
aI36
aI15
aI42
aI8
aI17
aI67
aI14
aI79
aI78
aI13
aI20
aI13
aI37
aI40
aI64
aI8
aI6
aI14
aI103
aI16
aI12
aI16
aI13
aI9
aI41
aI41
aI14
aI13
aI19
aI40
aI51
aI22
aI69
aI42
aI15
aI68
aI14
aI37
aI14
aI15
aI18
aI14
aI13
aI33
aI15
aI10
aI54
aI32
aI66
aI13
aI14
aI21
aI59
aI14
aI24
aI16
aI67
aI38
aI14
aI26
aI12
aI17
aI84
aI19
aI45
aI38
aI37
aI63
aI20
aI14
aI35
aI53
aI9
aI21
aI11
aI12
aI23
aI16
aI55
aI11
aI63
aI24
aI30
aI10
aI39
aI69
aI52
aI29
assS'METRIC DIRECT'
p20
(dp21
g3
(lp22
I01
aI01
aI01
aI01
aI01
aI01
aI01
aI01
aI00
aI00
aI01
aI01
aI01
aI00
aI00
aI01
aI01
aI01
aI01
aI01
aI01
aI01
aI01
aI01
aI01
aI01
aI01
aI01
aI01
aI01
aI01
aI01
aI01
aI01
aI01
aI00
aI01
aI01
aI01
aI01
aI01
aI01
aI01
aI01
aI01
aI01
aI01
aI00
aI01
aI01
aI01
aI01
aI01
aI01
aI01
aI01
aI00
aI01
aI01
aI01
aI01
aI01
aI01
aI01
aI01
aI01
aI00
aI01
aI01
aI01
aI01
aI01
aI01
aI01
aI01
aI01
aI01
aI01
aI01
aI01
aI01
aI01
aI01
aI01
aI01
aI00
aI01
aI00
aI00
aI01
aI00
aI01
aI01
aI01
aI00
aI01
aI01
aI01
aI00
aI00
aI00
aI00
aI01
aI01
aI01
aI01
aI01
aI01
aI01
aI01
aI01
aI01
aI01
aI01
aI01
aI01
aI01
aI01
aI01
aI01
aI01
aI01
aI01
aI01
aI01
aI01
aI01
aI01
aI01
aI01
aI01
aI01
aI01
aI01
aI01
aI01
aI01
aI01
aI01
aI01
aI01
aI01
aI01
aI01
aI01
aI01
aI01
aI01
aI01
aI01
aI01
aI01
aI01
aI01
aI01
aI01
aI01
aI01
aI01
aI01
aI01
aI01
aI01
aI01
aI00
aI01
aI01
aI01
aI01
aI01
aI00
aI01
aI01
aI01
aI01
aI01
aI01
aI01
aI01
aI01
aI01
aI01
aI01
aI01
aI01
aI01
aI00
aI00
aI01
aI01
aI01
aI01
aI01
aI01
aI00
aI01
aI01
aI01
aI01
aI00
aI01
aI01
aI01
aI00
aI01
aI01
aI01
aI01
aI00
aI01
aI01
aI01
aI01
aI01
aI01
aI01
aI01
aI01
aI00
aI00
aI01
aI01
aI00
aI01
aI01
aI00
aI00
aI01
aI01
aI00
aI01
aI01
aI00
aI00
aI01
aI01
aI00
aI01
aI01
aI01
aI01
aI01
aI00
aI01
aI01
aI01
aI01
aI01
aI01
aI01
asg5
(lp23
F0.3136439323425293
aF0.5056121349334717
aF0.9156839847564697
aF0.414715051651001
aF0.6013929843902588
aF0.6030399799346924
aF0.29471302032470703
aF1.5448989868164062
aF0.9732639789581299
aF0.845465898513794
aF0.9282138347625732
aF0.24048686027526855
aF0.9180288314819336
aF0.9090349674224854
aF1.5251672267913818
aF0.23993396759033203
aF0.7504367828369141
aF0.5311088562011719
aF0.7177319526672363
aF0.6163618564605713
aF0.374068021774292
aF0.561147928237915
aF0.7561380863189697
aF0.833949089050293
aF0.45166993141174316
aF1.0219709873199463
aF0.47904396057128906
aF1.1950039863586426
aF0.8247561454772949
aF0.5082869529724121
aF0.7162511348724365
aF0.4653351306915283
aF0.5680820941925049
aF0.9193220138549805
aF0.3009459972381592
aF0.8523569107055664
aF0.9075419902801514
aF1.8869140148162842
aF0.7130019664764404
aF0.23028302192687988
aF0.45200300216674805
aF0.7964580059051514
aF0.4242279529571533
aF0.8434000015258789
aF0.6067259311676025
aF1.457237958908081
aF0.6319270133972168
aF1.073505163192749
aF0.917382001876831
aF0.5897250175476074
aF0.5698809623718262
aF0.5296950340270996
aF0.7849929332733154
aF0.6912899017333984
aF1.1729848384857178
aF0.5003910064697266
aF0.9473781585693359
aF0.5254349708557129
aF0.4171772003173828
aF0.6266767978668213
aF0.5634429454803467
aF0.8274390697479248
aF0.4857189655303955
aF0.9366459846496582
aF0.8173420429229736
aF0.6733639240264893
aF0.7957949638366699
aF0.8133640289306641
aF0.8095200061798096
aF0.9036839008331299
aF0.3185150623321533
aF0.9395089149475098
aF0.7840070724487305
aF1.0656650066375732
aF0.7941019535064697
aF0.6016190052032471
aF0.7515280246734619
aF0.8076171875
aF0.852545976638794
aF0.35038018226623535
aF0.6104559898376465
aF0.8155438899993896
aF0.9063091278076172
aF0.4022369384765625
aF0.6000180244445801
aF1.4290030002593994
aF0.7768189907073975
aF0.9126849174499512
aF0.47243499755859375
aF0.49367189407348633
aF1.1034181118011475
aF0.35570693016052246
aF0.5575029850006104
aF0.7287180423736572
aF1.3232300281524658
aF0.6354758739471436
aF1.1819860935211182
aF0.44973301887512207
aF0.5045161247253418
aF0.520050048828125
aF1.0964670181274414
aF1.0863850116729736
aF0.577193021774292
aF0.5203728675842285
aF0.6751270294189453
aF0.9672980308532715
aF0.5671041011810303
aF0.5786261558532715
aF0.5019490718841553
aF1.2735018730163574
aF0.49323582649230957
aF2.544306993484497
aF0.6007120609283447
aF0.8855299949645996
aF1.5612289905548096
aF0.7065310478210449
aF0.8141069412231445
aF0.7245750427246094
aF0.5368878841400146
aF0.22729802131652832
aF0.6526751518249512
aF0.5745019912719727
aF0.7064158916473389
aF0.3122069835662842
aF0.780717134475708
aF0.6615509986877441
aF0.7652249336242676
aF1.6664469242095947
aF2.2945570945739746
aF0.9374070167541504
aF0.6020970344543457
aF0.46513795852661133
aF0.7486228942871094
aF0.6668810844421387
aF0.9481120109558105
aF0.9058890342712402
aF0.4785318374633789
aF0.535059928894043
aF0.6400740146636963
aF0.5618841648101807
aF0.7142260074615479
aF0.4654099941253662
aF0.7166640758514404
aF0.30950021743774414
aF0.5473248958587646
aF0.9077589511871338
aF0.6876509189605713
aF0.33855700492858887
aF0.60941481590271
aF0.569040060043335
aF0.35610198974609375
aF0.605720043182373
aF0.7943379878997803
aF0.7243070602416992
aF0.7073018550872803
aF0.5702261924743652
aF0.4773249626159668
aF0.5675480365753174
aF0.701322078704834
aF0.5202431678771973
aF0.49265503883361816
aF0.4625420570373535
aF0.997992992401123
aF1.0070841312408447
aF0.6407980918884277
aF0.37966179847717285
aF0.46056604385375977
aF0.8444170951843262
aF0.8510479927062988
aF1.0547921657562256
aF1.3617699146270752
aF1.1928389072418213
aF0.48729395866394043
aF0.35783886909484863
aF0.43916797637939453
aF0.47730493545532227
aF1.1106610298156738
aF0.6749088764190674
aF0.47792601585388184
aF0.638714075088501
aF0.5605461597442627
aF0.8457238674163818
aF0.5157959461212158
aF0.6030290126800537
aF0.5774469375610352
aF0.6317200660705566
aF0.7225489616394043
aF0.9063241481781006
aF0.74546217918396
aF0.7009220123291016
aF0.6981499195098877
aF0.5683939456939697
aF1.7081081867218018
aF0.35112595558166504
aF1.0919578075408936
aF0.6769840717315674
aF0.9291238784790039
aF1.1917390823364258
aF0.8518249988555908
aF1.4550838470458984
aF0.6330430507659912
aF0.47249794006347656
aF0.6254758834838867
aF0.6807999610900879
aF0.5100040435791016
aF0.6299281120300293
aF0.4743168354034424
aF0.4942169189453125
aF0.9547369480133057
aF0.8270368576049805
aF0.6483218669891357
aF1.0258328914642334
aF0.8740987777709961
aF0.7396769523620605
aF0.7861578464508057
aF0.7641899585723877
aF0.43798303604125977
aF0.8802261352539062
aF1.0650699138641357
aF1.0487060546875
aF0.5090639591217041
aF0.8126099109649658
aF0.9947519302368164
aF0.5990939140319824
aF0.47716498374938965
aF1.1258211135864258
aF1.152635097503662
aF2.2120110988616943
aF0.4854700565338135
aF0.40101194381713867
aF0.46648716926574707
aF0.6010668277740479
aF0.9943130016326904
aF1.123534917831421
aF0.8110690116882324
aF0.7144339084625244
aF1.1665279865264893
aF0.31638002395629883
aF0.7379369735717773
aF0.5620148181915283
aF1.572699785232544
aF0.6275651454925537
aF0.9860851764678955
aF0.33963680267333984
aF0.9921729564666748
aF0.3144187927246094
aF0.782243013381958
aF0.6824629306793213
aF0.6441869735717773
aF0.6196868419647217
asg7
(lp24
F1.7659492095077312
aF0.33039519078904744
aF1.957153581684581
aF1.232491282108508
aF1.673496711813239
aF1.0926763618047006
aF1.7569523665852576
aF1.7590327539683535
aF2.2086764358588624
aF1.334188849450278
aF1.4303133343299974
aF2.496160389981346
aF0.6186087402150677
aF3.6206592681593324
aF1.5033520997725092
aF1.7403929746590914
aF1.3333853021833049
aF1.3046349266717374
aF1.4020649953234643
aF2.306340953551723
aF1.8044666929923385
aF2.096585744237357
aF1.198586490955964
aF1.2796411756766424
aF0.31067116962026486
aF1.4333442760103852
aF1.3151883687620203
aF1.193419780550192
aF2.212350480689056
aF0.5175657166786662
aF1.1208629621218
aF1.5315168861612463
aF1.9459970376517532
aF0.8429001682212529
aF1.200374142336213
aF1.9441891171009409
aF1.1363721397009812
aF1.660076465675098
aF1.8880367892521492
aF1.1788197637562874
aF1.9877784982883302
aF1.3830171988616835
aF1.0856366342976407
aF0.9439927773776041
aF1.9179984049719596
aF0.9468562092977901
aF1.0841042652040689
aF1.834498165046712
aF1.2497858762786869
aF2.2496103718065883
aF1.0880096146358513
aF2.552284035754835
aF2.324376997163939
aF1.6549331841406858
aF1.7364263972113452
aF0.8087752786060386
aF1.0230631297609398
aF1.710699032644106
aF1.2988761000525495
aF1.2085982200996357
aF1.3878491923564882
aF1.4104077352393103
aF1.4709664187383
aF1.4861972664853234
aF1.2777604578674169
aF1.647993980750473
aF1.836650699296134
aF2.6702242728696315
aF1.4517968444851774
aF1.7559060281491279
aF0.7370622153176191
aF1.578526562068134
aF1.1529411564383374
aF1.806585992327553
aF2.1866372651155404
aF1.8444084821707911
aF1.631211510632406
aF1.7597538769618262
aF1.7974234004953935
aF1.630847464407117
aF1.4274921962498515
aF1.200153907334968
aF1.6634425233217194
aF1.0745700277097814
aF1.15582290845513
aF1.781704556228518
aF0.4576578104915947
aF1.4087974108192547
aF2.4433171300269896
aF1.5021660128307723
aF0.9996300620067924
aF1.8347925780625427
aF2.3913416190907344
aF1.792301180590346
aF3.304616367470458
aF1.5656855833666665
aF1.8299513085675156
aF1.8483573394538633
aF2.3988437589121157
aF2.1144554607853214
aF2.4612311355586542
aF0.4835081586540813
aF1.5498388199505357
aF0.28174803600048626
aF1.9028030025311786
aF0.46303023050909625
aF1.1503157623071274
aF1.9493033785340796
aF1.3716838511655995
aF1.908998772858602
aF1.8366538307000584
aF1.621964043441219
aF0.5316363574104256
aF1.357542994140978
aF2.021853039531138
aF0.57962785098121
aF2.5407687757899877
aF1.538808463209855
aF1.511785069333116
aF1.1217234047406213
aF1.6950396007227881
aF1.1048795161683056
aF1.293955515530133
aF1.1017371347485019
aF2.0787271467132014
aF1.2991955618141915
aF1.8547568301643371
aF0.830140676132099
aF0.9617569872542873
aF1.5239302540160733
aF1.8010852538417224
aF1.349365702215277
aF1.3918226317259899
aF2.1674459330423037
aF2.2787802046894954
aF1.8457374932563457
aF2.025057070155995
aF1.3586003638198711
aF1.3952600610030559
aF0.6991739006506275
aF1.6755820279813949
aF1.9152634007508624
aF0.3579552959398498
aF2.152202878449202
aF1.3186254267836386
aF1.259092687230003
aF2.0143463664786254
aF1.8408265376919566
aF1.9607843060425372
aF1.4821375049291556
aF1.0117190088317007
aF0.3899997661995834
aF1.7912257142757493
aF1.8066157490139825
aF2.3333580449020226
aF1.7702140515214746
aF1.7904711108787352
aF2.95895675682026
aF1.5088284810479824
aF1.7914070375120625
aF1.1737806826512398
aF2.134633225851381
aF1.0877424524588268
aF2.0408907967216243
aF3.258177952429652
aF0.25408281750865447
aF1.003860031627094
aF1.1055220932907157
aF1.2779727164704289
aF1.3405768661808997
aF0.6787564281363672
aF0.9476491116059512
aF1.7506167569661109
aF0.301339438442963
aF0.3646832102412254
aF1.0420194190632566
aF2.362186367826711
aF0.24717498779864697
aF1.140532469433836
aF1.3159733440794792
aF1.326353230566889
aF0.7839129070894488
aF1.6287513134184266
aF1.2815463987649052
aF0.4762233889075708
aF1.3928184157430337
aF0.5211513185758746
aF1.2603638788250857
aF1.2998988579954946
aF2.991189728339169
aF1.6629759211379505
aF2.596164043794782
aF1.6351243760107226
aF1.8301740277457996
aF0.7290276446613174
aF1.8463787182117464
aF1.03722292962086
aF1.1337714229770746
aF1.0488508125479414
aF4.148179397792736
aF1.0884024564168655
aF2.2109155879930253
aF0.39124249899602176
aF2.2001667603171438
aF1.8640014100811102
aF1.7904520478151846
aF1.2638989459384598
aF1.2242746181383375
aF3.4622570915312814
aF1.6408603479999242
aF1.942083398787397
aF1.2904311735405203
aF2.1691763446157566
aF1.9461810804311626
aF1.5228127548141352
aF0.5669717021545131
aF0.3508412347403573
aF1.506756162593665
aF1.1574293566675924
aF0.9535855682610584
aF1.1886859220059012
aF1.52471018285085
aF1.949767610862364
aF1.319091736892399
aF1.2928028953135953
aF1.1570883145181292
aF1.7612422864181079
aF1.1547196699602198
aF1.2729527645408567
aF3.0404824516522613
aF2.4322623156721606
aF1.3454639331589793
aF0.7485562706288593
aF0.7495281404926635
aF1.1356564812971601
aF1.1128072250382524
aF1.5164945053010526
aF2.5494610012595054
aF0.36037628726931936
aF2.696543727972083
aF1.5542775332128047
aF1.4621560470654702
aF1.1936278472939386
aF0.23679963798083334
aF0.46426949447217486
aF1.9402884138911864
aF1.7858681944860577
aF1.6915092238820006
aF1.588164736304793
aF1.9622631764209923
asg9
(lp25
I6
aI8
aI9
aI7
aI10
aI11
aI3
aI24
aI16
aI15
aI14
aI3
aI15
aI14
aI23
aI4
aI12
aI9
aI12
aI12
aI6
aI9
aI10
aI13
aI8
aI16
aI8
aI21
aI12
aI8
aI12
aI8
aI9
aI14
aI5
aI12
aI15
aI17
aI12
aI4
aI7
aI13
aI7
aI14
aI9
aI22
aI10
aI17
aI14
aI10
aI9
aI6
aI13
aI13
aI19
aI9
aI17
aI9
aI7
aI10
aI9
aI13
aI6
aI15
aI11
aI12
aI12
aI12
aI13
aI16
aI6
aI14
aI13
aI15
aI13
aI10
aI12
aI14
aI13
aI5
aI10
aI12
aI15
aI7
aI10
aI16
aI12
aI16
aI8
aI8
aI17
aI6
aI7
aI12
aI20
aI10
aI20
aI7
aI8
aI9
aI14
aI16
aI9
aI9
aI12
aI15
aI10
aI9
aI9
aI13
aI9
aI26
aI10
aI14
aI26
aI12
aI13
aI9
aI9
aI3
aI10
aI9
aI12
aI6
aI13
aI12
aI12
aI14
aI36
aI16
aI10
aI8
aI13
aI12
aI17
aI10
aI9
aI8
aI10
aI10
aI12
aI8
aI12
aI5
aI9
aI16
aI8
aI5
aI9
aI9
aI5
aI10
aI12
aI7
aI12
aI9
aI9
aI10
aI12
aI10
aI8
aI6
aI15
aI16
aI9
aI5
aI8
aI13
aI12
aI17
aI20
aI17
aI8
aI6
aI6
aI8
aI19
aI9
aI6
aI10
aI10
aI14
aI9
aI10
aI9
aI10
aI12
aI14
aI14
aI14
aI7
aI9
aI25
aI4
aI17
aI7
aI14
aI20
aI14
aI21
aI11
aI8
aI10
aI10
aI10
aI11
aI8
aI8
aI16
aI12
aI10
aI15
aI13
aI11
aI13
aI12
aI8
aI14
aI17
aI16
aI6
aI12
aI17
aI9
aI7
aI13
aI19
aI10
aI8
aI7
aI7
aI9
aI10
aI17
aI14
aI12
aI15
aI5
aI13
aI10
aI17
aI10
aI16
aI6
aI16
aI4
aI8
aI10
aI10
aI10
asg11
(lp26
I5
aI7
aI8
aI6
aI9
aI10
aI2
aI23
aI15
aI14
aI13
aI2
aI14
aI13
aI22
aI3
aI11
aI8
aI11
aI11
aI5
aI8
aI9
aI12
aI7
aI15
aI7
aI20
aI11
aI7
aI11
aI7
aI8
aI13
aI4
aI11
aI14
aI16
aI11
aI3
aI6
aI12
aI6
aI13
aI8
aI21
aI9
aI16
aI13
aI9
aI8
aI5
aI12
aI12
aI18
aI8
aI16
aI8
aI6
aI9
aI8
aI12
aI5
aI14
aI10
aI11
aI11
aI11
aI12
aI15
aI5
aI13
aI12
aI14
aI12
aI9
aI11
aI13
aI12
aI4
aI9
aI11
aI14
aI6
aI9
aI15
aI11
aI15
aI7
aI7
aI16
aI5
aI6
aI11
aI19
aI9
aI19
aI6
aI7
aI8
aI13
aI15
aI8
aI8
aI11
aI14
aI9
aI8
aI8
aI12
aI8
aI25
aI9
aI13
aI25
aI11
aI12
aI8
aI8
aI2
aI9
aI8
aI11
aI5
aI12
aI11
aI11
aI13
aI35
aI15
aI9
aI7
aI12
aI11
aI16
aI9
aI8
aI7
aI9
aI9
aI11
aI7
aI11
aI4
aI8
aI15
aI7
aI4
aI8
aI8
aI4
aI9
aI11
aI6
aI11
aI8
aI8
aI9
aI11
aI9
aI7
aI5
aI14
aI15
aI8
aI4
aI7
aI12
aI11
aI16
aI19
aI16
aI7
aI5
aI5
aI7
aI18
aI8
aI5
aI9
aI9
aI13
aI8
aI9
aI8
aI9
aI11
aI13
aI13
aI13
aI6
aI8
aI24
aI3
aI16
aI6
aI13
aI19
aI13
aI20
aI10
aI7
aI9
aI9
aI9
aI10
aI7
aI7
aI15
aI11
aI9
aI14
aI12
aI10
aI12
aI11
aI7
aI13
aI16
aI15
aI5
aI11
aI16
aI8
aI6
aI12
aI18
aI9
aI7
aI6
aI6
aI8
aI9
aI16
aI13
aI11
aI14
aI4
aI12
aI9
aI16
aI9
aI15
aI5
aI15
aI3
aI7
aI9
aI9
aI9
assS'NN     '
p27
(dp28
g3
(lp29
I01
aI01
aI01
aI01
aI01
aI01
aI01
aI00
aI01
aI01
aI00
aI01
aI01
aI01
aI01
aI00
aI01
aI00
aI01
aI01
aI01
aI01
aI01
aI01
aI00
aI00
aI01
aI00
aI01
aI01
aI01
aI00
aI00
aI00
aI00
aI01
aI01
aI01
aI01
aI01
aI01
aI00
aI01
aI00
aI01
aI01
aI01
aI00
aI01
aI01
aI01
aI01
aI01
aI00
aI01
aI01
aI01
aI01
aI00
aI00
aI01
aI01
aI01
aI01
aI01
aI00
aI01
aI01
aI01
aI01
aI01
aI01
aI01
aI01
aI01
aI01
aI01
aI01
aI01
aI01
aI01
aI01
aI01
aI01
aI01
aI01
aI01
aI00
aI01
aI00
aI00
aI01
aI01
aI00
aI01
aI00
aI01
aI00
aI00
aI00
aI01
aI00
aI01
aI00
aI01
aI01
aI01
aI01
aI01
aI01
aI01
aI01
aI01
aI00
aI01
aI01
aI01
aI01
aI01
aI00
aI00
aI00
aI01
aI01
aI01
aI00
aI01
aI00
aI00
aI01
aI01
aI01
aI01
aI01
aI01
aI01
aI01
aI01
aI00
aI01
aI01
aI01
aI01
aI01
aI01
aI01
aI01
aI00
aI01
aI01
aI00
aI00
aI00
aI00
aI00
aI00
aI01
aI01
aI01
aI00
aI00
aI01
aI01
aI01
aI01
aI01
aI01
aI00
aI01
aI00
aI00
aI01
aI01
aI01
aI01
aI00
aI01
aI01
aI01
aI01
aI01
aI00
aI01
aI01
aI01
aI01
aI01
aI01
aI01
aI00
aI00
aI01
aI00
aI00
aI01
aI01
aI01
aI01
aI01
aI01
aI01
aI01
aI01
aI01
aI01
aI01
aI00
aI01
aI01
aI00
aI00
aI01
aI01
aI01
aI01
aI01
aI01
aI01
aI01
aI01
aI01
aI01
aI01
aI01
aI01
aI01
aI00
aI01
aI01
aI00
aI00
aI01
aI01
aI00
aI00
aI01
aI00
aI01
aI00
aI01
aI01
aI01
aI00
aI01
aI01
aI00
aI01
aI01
aI01
aI01
asg5
(lp30
F0.469851016998291
aF1.4600849151611328
aF0.5866501331329346
aF1.053844928741455
aF0.9547319412231445
aF1.4182498455047607
aF0.5246648788452148
aF2.382179021835327
aF0.855842113494873
aF1.2681310176849365
aF0.7790849208831787
aF0.515927791595459
aF1.88474702835083
aF1.1346218585968018
aF2.212714910507202
aF1.6040289402008057
aF2.022442102432251
aF1.5277888774871826
aF4.475461006164551
aF0.8468430042266846
aF0.6427359580993652
aF0.5028798580169678
aF0.9115259647369385
aF0.8052899837493896
aF1.554175853729248
aF1.296849012374878
aF0.9183950424194336
aF1.951746940612793
aF1.2291650772094727
aF1.634840965270996
aF1.7758269309997559
aF3.3794610500335693
aF1.2388691902160645
aF2.890526056289673
aF1.6642110347747803
aF0.880871057510376
aF3.043951988220215
aF1.4317429065704346
aF0.8309831619262695
aF0.6686618328094482
aF0.9230859279632568
aF1.0462610721588135
aF3.342725992202759
aF2.209689140319824
aF0.6916899681091309
aF2.029201030731201
aF0.7350430488586426
aF3.720982074737549
aF0.6630759239196777
aF1.1867568492889404
aF0.725754976272583
aF0.7086489200592041
aF0.6601929664611816
aF2.3983161449432373
aF0.6160869598388672
aF0.7771902084350586
aF5.055196046829224
aF0.8711531162261963
aF2.5115489959716797
aF3.0613021850585938
aF2.1471660137176514
aF0.7933399677276611
aF2.1773648262023926
aF1.7751109600067139
aF1.8303191661834717
aF1.664233922958374
aF0.6182560920715332
aF0.421461820602417
aF0.7494010925292969
aF0.8608970642089844
aF0.750154972076416
aF0.6894152164459229
aF0.6488709449768066
aF0.8367750644683838
aF0.9766519069671631
aF0.6810650825500488
aF2.537132978439331
aF0.8300909996032715
aF0.6932380199432373
aF0.556926965713501
aF0.6363928318023682
aF0.5041139125823975
aF0.5616109371185303
aF1.2578651905059814
aF0.5941028594970703
aF0.6051969528198242
aF1.619049072265625
aF3.598444938659668
aF1.2118799686431885
aF0.8136260509490967
aF0.8364238739013672
aF1.0442028045654297
aF2.2200608253479004
aF0.9927489757537842
aF0.9320859909057617
aF1.8986611366271973
aF2.0489020347595215
aF0.48273396492004395
aF3.4441020488739014
aF1.378967046737671
aF0.7381110191345215
aF1.5973379611968994
aF0.7774109840393066
aF2.6183531284332275
aF0.8317251205444336
aF1.9077601432800293
aF2.508552074432373
aF1.7881739139556885
aF0.7788031101226807
aF2.65446400642395
aF0.8353879451751709
aF1.8857460021972656
aF0.9132230281829834
aF1.6357460021972656
aF1.7961270809173584
aF0.692742109298706
aF1.3437249660491943
aF0.9094188213348389
aF0.5250699520111084
aF3.1904618740081787
aF0.8283770084381104
aF1.8521039485931396
aF1.320194959640503
aF1.7260630130767822
aF2.04313588142395
aF1.0675640106201172
aF0.7578620910644531
aF1.4891901016235352
aF3.8739099502563477
aF0.8608288764953613
aF4.399060964584351
aF0.5882370471954346
aF2.9222140312194824
aF0.7537500858306885
aF0.5632331371307373
aF0.5203440189361572
aF0.44561314582824707
aF0.5001640319824219
aF2.795711040496826
aF0.921349048614502
aF2.443726062774658
aF0.8183341026306152
aF0.58542799949646
aF0.9097080230712891
aF1.4832539558410645
aF0.6376528739929199
aF1.9276049137115479
aF0.8585808277130127
aF0.5249800682067871
aF0.5970649719238281
aF0.8995029926300049
aF1.2038469314575195
aF2.1404688358306885
aF0.5754871368408203
aF1.3030099868774414
aF1.3029088973999023
aF0.7484838962554932
aF0.6031811237335205
aF1.0478870868682861
aF1.7389469146728516
aF1.3028440475463867
aF0.7244179248809814
aF0.7468180656433105
aF1.140692949295044
aF1.2723920345306396
aF0.6092269420623779
aF2.048564910888672
aF1.5309498310089111
aF1.4777319431304932
aF2.2867040634155273
aF1.969632863998413
aF0.63521409034729
aF0.463115930557251
aF0.7080450057983398
aF1.9110181331634521
aF1.5304911136627197
aF3.601886034011841
aF0.526630163192749
aF0.6061291694641113
aF1.5308899879455566
aF4.742204904556274
aF2.1957380771636963
aF1.0585439205169678
aF0.598527193069458
aF0.6323680877685547
aF1.1969618797302246
aF1.0266480445861816
aF2.841777801513672
aF0.9601390361785889
aF0.7326650619506836
aF2.817560911178589
aF1.1773688793182373
aF2.4665379524230957
aF1.7336452007293701
aF1.23073410987854
aF0.7132480144500732
aF0.7985029220581055
aF2.202569007873535
aF0.8656339645385742
aF3.5025038719177246
aF0.6042559146881104
aF1.2903759479522705
aF0.6826598644256592
aF3.4692060947418213
aF0.726017951965332
aF0.6111099720001221
aF0.641232967376709
aF0.45957493782043457
aF2.1494781970977783
aF2.363379955291748
aF2.189359188079834
aF1.4875380992889404
aF0.9921379089355469
aF0.5205979347229004
aF1.4009809494018555
aF3.766232967376709
aF1.0357511043548584
aF2.5108530521392822
aF6.660162925720215
aF0.8834869861602783
aF0.49379801750183105
aF0.6160190105438232
aF0.49231386184692383
aF0.7628481388092041
aF0.8160340785980225
aF1.1994388103485107
aF1.7256910800933838
aF1.2110819816589355
aF2.031205177307129
aF1.3733470439910889
aF1.217763900756836
aF0.6325170993804932
aF1.7047929763793945
aF2.338186025619507
aF1.0032708644866943
aF1.9575510025024414
aF0.9919149875640869
aF0.5894269943237305
aF1.9917619228363037
aF0.5214049816131592
aF0.8447158336639404
aF0.606191873550415
aF3.939175844192505
aF1.1056129932403564
aF1.4809749126434326
aF0.918424129486084
aF2.1579439640045166
aF1.466521978378296
aF2.069108009338379
aF1.3302650451660156
asg7
(lp31
F2.5711290326276535
aF0.3078585947144573
aF2.465162602744796
aF0.40392588824003706
aF2.3945746563486803
aF3.101069706195124
aF2.4933272383567084
aF2.0848889707966167
aF2.1492635777628166
aF1.3056404517623885
aF3.150450634548388
aF2.47878594653601
aF1.0112291287877886
aF2.8702417904154003
aF0.7544477369040526
aF3.6638444266601637
aF1.1859994401146543
aF0.6173870919790332
aF2.64540422272622
aF3.4715956659854164
aF3.258181160173273
aF2.104781051594273
aF0.7883135408229369
aF1.9598021863679909
aF1.048928749304471
aF1.5576639192766546
aF1.7766367398258582
aF2.666679592093266
aF1.2817353421235764
aF1.5702598601243136
aF2.1227278684816433
aF0.7252152931854767
aF2.818643289055614
aF3.2922030652596947
aF0.4805199099579716
aF0.44577755559080756
aF1.8694854567537085
aF1.9313931620601235
aF2.7643320440218146
aF1.2985702293984547
aF1.985533240072169
aF1.997865006937658
aF2.646615647642857
aF2.1201269543756176
aF2.787610968386405
aF0.8911502899504823
aF1.2304931884184165
aF2.8592817125386993
aF0.6589764815874909
aF2.2072182242558207
aF2.1122164136693073
aF2.4530355985289445
aF2.3421154254739065
aF2.9671827700546753
aF1.6667349034262686
aF0.6422524529749812
aF2.03855115157016
aF1.622317886053029
aF0.6992017494519124
aF1.4798930209528731
aF2.705313475133044
aF1.433985854281255
aF3.2496873937786948
aF2.4069835579271444
aF2.1134430986403427
aF2.4596123950936546
aF1.758367541877238
aF2.6693014316463786
aF2.126975680399038
aF1.7392767869236372
aF0.6792234977293685
aF1.709135992783269
aF1.8767192184122754
aF2.21555129701645
aF2.8751660053354064
aF2.5740124565202276
aF2.089228624084276
aF1.6190344552811948
aF3.2484613084842016
aF2.7016298968770562
aF1.3159455878221358
aF1.098711781221366
aF1.6392637592453354
aF1.1082099448564413
aF2.3808460185532967
aF2.952506466970276
aF0.41930677905942004
aF1.071979327767501
aF2.332520530081348
aF2.304911991026901
aF1.1774736569157238
aF1.9172375182756127
aF2.2697519174269214
aF1.9856253033739533
aF2.4049906320041723
aF3.027296311657414
aF1.6637115797323785
aF3.322685654101232
aF0.45856596782256753
aF1.6260621337956302
aF2.7326877649399206
aF0.4910639963656861
aF1.3848961400891586
aF0.5141389150603519
aF0.6171132615423733
aF1.176722797833956
aF1.1753128349222037
aF1.8996093706291162
aF1.312691181665811
aF0.8864633504603812
aF2.9876184739783516
aF1.9490854741235133
aF0.44349456784096136
aF1.3323897055602791
aF1.9166440049482243
aF1.3912574784924328
aF2.427260715197934
aF1.483250829431468
aF1.4418226741525413
aF1.9759475369539035
aF2.4788457008727542
aF2.8277219570256267
aF1.8688437985467738
aF1.074069775744205
aF1.8286748462030258
aF2.4392910516632362
aF2.6326829468245667
aF1.1428635674602952
aF0.8714500341410104
aF1.3229525681007723
aF2.821834409355034
aF2.3259413735384427
aF1.3499830240722832
aF3.1434169114954824
aF2.29323893106336
aF2.5256190840755712
aF1.8729814083768792
aF3.1504755641651814
aF0.684540483611793
aF0.4726687142080234
aF1.4330397063996765
aF1.8806644205838483
aF0.34744953886567753
aF2.080452154667891
aF1.387599934935298
aF1.786813825111152
aF2.540753095352549
aF2.7029952250548286
aF3.006531410935415
aF1.5018112314080885
aF1.0913266820423546
aF1.21598429025726
aF1.5119972636032495
aF2.6337505833429202
aF2.5925302770315137
aF1.593509021026435
aF1.031658420522259
aF2.94919513424565
aF2.324290583240162
aF0.2251709279505779
aF1.082082273011548
aF2.3712015317833806
aF1.7709411127922279
aF2.183178982620915
aF3.1715604783113416
aF0.2694085276033868
aF3.8725211990477564
aF0.2937609962664654
aF2.4443448418535976
aF3.6208632567297294
aF2.4277440577816463
aF1.421162079809407
aF3.2320617364294817
aF0.30141150910806247
aF0.3532745018850434
aF3.217041957053646
aF2.8603561137482947
aF0.24304803482820928
aF2.540419423610881
aF1.9274638415398533
aF0.7135756144237658
aF0.8181994360523803
aF2.7921464220667502
aF1.1454794884809547
aF1.1488640024409422
aF1.2265407333370668
aF2.480265164771131
aF0.9235433342715196
aF2.5627794707300993
aF3.6143566119245736
aF2.190783579311793
aF1.5044119013260586
aF2.2417227556557444
aF2.6585143127913917
aF1.6798420595311994
aF2.7402261602053333
aF0.8489095774346122
aF1.1561020336434595
aF1.9396720981498818
aF1.7543773179040794
aF1.006641392513047
aF1.2484864635237616
aF1.1176596824329508
aF1.8246633087365012
aF2.86216943200484
aF3.00858805275693
aF1.3706581866448118
aF3.130230614327
aF2.207034745016338
aF3.4759416350280365
aF1.6297643576679668
aF1.3434842390469888
aF2.1712806539022
aF2.6996625274692976
aF1.485900055368395
aF1.3664674085635218
aF0.34526578523633417
aF2.304317773081608
aF0.9992323683489752
aF0.9588002586961472
aF2.78301187484685
aF2.4487493111947636
aF1.6833185256261316
aF2.169971315400846
aF2.2681022762483614
aF1.7269053848156584
aF0.8454110084087455
aF1.1570964967211015
aF1.2263355067441433
aF1.4004746791746483
aF2.2493453955015053
aF1.2123787541484439
aF0.5762280027434535
aF2.6391161519954736
aF0.5463737656979294
aF1.245748576635888
aF1.4649748058048306
aF2.533107595168514
aF0.652074538819476
aF1.868426685159551
aF1.602340482629746
aF1.3775931008588531
aF0.6250953694188728
aF0.2230829652533348
aF0.9825244460452083
aF3.4894571378038566
aF1.0455014060549987
aF2.092556405307336
aF1.403737188398379
aF3.393632559235684
asg9
(lp32
I9
aI23
aI11
aI10
aI16
aI14
aI10
aI39
aI13
aI12
aI12
aI7
aI29
aI16
aI33
aI22
aI32
aI22
aI56
aI13
aI10
aI9
aI16
aI13
aI28
aI24
aI10
aI18
aI15
aI26
aI32
aI39
aI21
aI48
aI21
aI13
aI37
aI25
aI13
aI10
aI15
aI15
aI42
aI36
aI11
aI28
aI12
aI47
aI10
aI18
aI12
aI13
aI12
aI30
aI10
aI14
aI76
aI15
aI32
aI45
aI31
aI14
aI25
aI28
aI14
aI26
aI10
aI6
aI12
aI15
aI13
aI10
aI10
aI14
aI16
aI11
aI41
aI14
aI12
aI10
aI11
aI9
aI10
aI22
aI11
aI10
aI24
aI56
aI12
aI10
aI13
aI10
aI18
aI18
aI13
aI30
aI24
aI7
aI35
aI22
aI11
aI15
aI13
aI38
aI14
aI31
aI42
aI27
aI14
aI41
aI8
aI29
aI16
aI26
aI28
aI12
aI12
aI16
aI10
aI45
aI14
aI30
aI12
aI30
aI34
aI18
aI12
aI24
aI63
aI14
aI43
aI11
aI47
aI13
aI10
aI7
aI7
aI10
aI41
aI12
aI35
aI13
aI10
aI15
aI14
aI10
aI31
aI14
aI8
aI10
aI17
aI18
aI32
aI8
aI20
aI20
aI14
aI12
aI14
aI20
aI11
aI12
aI11
aI14
aI16
aI10
aI36
aI26
aI12
aI37
aI32
aI10
aI9
aI12
aI20
aI24
aI51
aI9
aI8
aI13
aI65
aI32
aI13
aI10
aI10
aI19
aI13
aI43
aI19
aI9
aI46
aI10
aI37
aI19
aI21
aI12
aI13
aI33
aI14
aI40
aI10
aI13
aI12
aI42
aI7
aI10
aI10
aI9
aI33
aI36
aI31
aI13
aI15
aI7
aI16
aI60
aI18
aI40
aI98
aI14
aI7
aI10
aI7
aI13
aI14
aI14
aI28
aI18
aI18
aI21
aI20
aI10
aI26
aI36
aI15
aI28
aI15
aI10
aI29
aI9
aI13
aI10
aI63
aI19
aI24
aI14
aI37
aI21
aI32
aI24
asg11
(lp33
I8
aI22
aI10
aI9
aI15
aI13
aI9
aI38
aI12
aI11
aI11
aI6
aI28
aI15
aI32
aI21
aI31
aI21
aI55
aI12
aI9
aI8
aI15
aI12
aI27
aI23
aI9
aI17
aI14
aI25
aI31
aI38
aI20
aI47
aI20
aI12
aI36
aI24
aI12
aI9
aI14
aI14
aI41
aI35
aI10
aI27
aI11
aI46
aI9
aI17
aI11
aI12
aI11
aI29
aI9
aI13
aI75
aI14
aI31
aI44
aI30
aI13
aI24
aI27
aI13
aI25
aI9
aI5
aI11
aI14
aI12
aI9
aI9
aI13
aI15
aI10
aI40
aI13
aI11
aI9
aI10
aI8
aI9
aI21
aI10
aI9
aI23
aI55
aI11
aI9
aI12
aI9
aI17
aI17
aI12
aI29
aI23
aI6
aI34
aI21
aI10
aI14
aI12
aI37
aI13
aI30
aI41
aI26
aI13
aI40
aI7
aI28
aI15
aI25
aI27
aI11
aI11
aI15
aI9
aI44
aI13
aI29
aI11
aI29
aI33
aI17
aI11
aI23
aI62
aI13
aI42
aI10
aI46
aI12
aI9
aI6
aI6
aI9
aI40
aI11
aI34
aI12
aI9
aI14
aI13
aI9
aI30
aI13
aI7
aI9
aI16
aI17
aI31
aI7
aI19
aI19
aI13
aI11
aI13
aI19
aI10
aI11
aI10
aI13
aI15
aI9
aI35
aI25
aI11
aI36
aI31
aI9
aI8
aI11
aI19
aI23
aI50
aI8
aI7
aI12
aI64
aI31
aI12
aI9
aI9
aI18
aI12
aI42
aI18
aI8
aI45
aI9
aI36
aI18
aI20
aI11
aI12
aI32
aI13
aI39
aI9
aI12
aI11
aI41
aI6
aI9
aI9
aI8
aI32
aI35
aI30
aI12
aI14
aI6
aI15
aI59
aI17
aI39
aI97
aI13
aI6
aI9
aI6
aI12
aI13
aI13
aI27
aI17
aI17
aI20
aI19
aI9
aI25
aI35
aI14
aI27
aI14
aI9
aI28
aI8
aI12
aI9
aI62
aI18
aI23
aI13
aI36
aI20
aI31
aI23
assS'ensemble'
p34
(dp35
g3
(lp36
I01
aI01
aI01
aI01
aI01
aI01
aI01
aI01
aI01
aI01
aI01
aI01
aI01
aI01
aI01
aI01
aI01
aI01
aI01
aI01
aI01
aI01
aI01
aI01
aI01
aI01
aI01
aI01
aI01
aI01
aI01
aI01
aI01
aI01
aI01
aI01
aI01
aI01
aI01
aI01
aI01
aI01
aI01
aI01
aI01
aI01
aI01
aI01
aI01
aI01
aI01
aI01
aI01
aI01
aI01
aI01
aI01
aI01
aI01
aI01
aI01
aI01
aI01
aI01
aI01
aI01
aI01
aI01
aI01
aI01
aI01
aI01
aI01
aI01
aI01
aI01
aI01
aI01
aI01
aI01
aI01
aI01
aI01
aI01
aI01
aI01
aI01
aI00
aI01
aI01
aI01
aI01
aI01
aI01
aI01
aI01
aI01
aI01
aI01
aI00
aI01
aI01
aI01
aI01
aI01
aI01
aI01
aI01
aI01
aI01
aI01
aI01
aI01
aI01
aI01
aI01
aI01
aI01
aI01
aI01
aI01
aI01
aI01
aI01
aI01
aI01
aI01
aI01
aI01
aI01
aI01
aI01
aI01
aI01
aI01
aI01
aI01
aI01
aI01
aI01
aI01
aI01
aI01
aI01
aI01
aI01
aI01
aI01
aI01
aI01
aI01
aI01
aI01
aI01
aI01
aI01
aI01
aI01
aI01
aI01
aI01
aI01
aI01
aI01
aI01
aI01
aI01
aI01
aI01
aI01
aI01
aI01
aI01
aI01
aI01
aI01
aI01
aI01
aI01
aI01
aI01
aI01
aI01
aI01
aI01
aI01
aI01
aI01
aI01
aI01
aI01
aI01
aI01
aI01
aI01
aI01
aI01
aI01
aI01
aI01
aI01
aI01
aI01
aI01
aI01
aI01
aI01
aI01
aI01
aI01
aI01
aI01
aI01
aI01
aI01
aI01
aI01
aI01
aI01
aI01
aI01
aI01
aI01
aI01
aI01
aI01
aI01
aI01
aI01
aI01
aI01
aI01
aI01
aI00
aI01
aI01
aI00
aI01
aI01
aI01
aI01
aI01
aI00
aI01
aI01
aI01
aI01
aI01
aI01
aI01
asg5
(lp37
F0.6374890804290771
aF0.9490108489990234
aF1.2458460330963135
aF0.9464471340179443
aF1.3492591381072998
aF1.2487680912017822
aF0.5340831279754639
aF2.6555449962615967
aF2.268805980682373
aF1.9525251388549805
aF1.653136968612671
aF0.6352338790893555
aF1.0445630550384521
aF2.151546001434326
aF3.7557528018951416
aF0.6362409591674805
aF1.4643011093139648
aF1.1494219303131104
aF1.3502700328826904
aF1.148162841796875
aF0.8425390720367432
aF1.552422046661377
aF1.5472378730773926
aF1.5519697666168213
aF0.9469599723815918
aF1.7537469863891602
aF1.0488150119781494
aF2.1567089557647705
aF1.9554381370544434
aF1.149610996246338
aF1.350578784942627
aF1.3516020774841309
aF1.150346040725708
aF1.654109001159668
aF0.9455728530883789
aF1.9559800624847412
aF1.65391206741333
aF1.955955982208252
aF1.349783182144165
aF0.641120195388794
aF1.3526828289031982
aF1.4523417949676514
aF0.9501841068267822
aF1.552577018737793
aF1.254683017730713
aF2.457458972930908
aF1.255336046218872
aF2.5640439987182617
aF1.6552801132202148
aF1.252223014831543
aF1.1515469551086426
aF0.960637092590332
aF1.5558838844299316
aF1.354849100112915
aF1.2522039413452148
aF0.9505188465118408
aF2.16253399848938
aF1.0517518520355225
aF0.9503958225250244
aF1.251662015914917
aF1.1596910953521729
aF1.5605909824371338
aF0.950402021408081
aF1.661797046661377
aF1.5574300289154053
aF1.36014986038208
aF1.8625390529632568
aF0.9502871036529541
aF1.4585840702056885
aF1.5601959228515625
aF0.750115156173706
aF1.4547178745269775
aF1.4575951099395752
aF2.050701856613159
aF1.462501049041748
aF1.2558112144470215
aF1.456277847290039
aF1.2605338096618652
aF1.5610570907592773
aF1.0572900772094727
aF1.256300926208496
aF1.2560608386993408
aF1.6626651287078857
aF1.2529590129852295
aF1.1567010879516602
aF1.3571820259094238
aF1.9639060497283936
aF9.37599492073059
aF1.5759470462799072
aF0.9534308910369873
aF2.970134973526001
aF0.7481231689453125
aF0.9457831382751465
aF1.6603729724884033
aF1.864008903503418
aF1.7661349773406982
aF2.1577770709991455
aF0.9572830200195312
aF1.9653279781341553
aF4.2703940868377686
aF1.6603968143463135
aF1.6726839542388916
aF1.1574790477752686
aF1.1583068370819092
aF1.870030164718628
aF1.8662331104278564
aF1.2592031955718994
aF1.2545859813690186
aF1.5754868984222412
aF1.558743953704834
aF1.1610608100891113
aF1.5657498836517334
aF1.2636661529541016
aF1.6646831035614014
aF2.7724058628082275
aF1.3597619533538818
aF1.5678789615631104
aF1.0580358505249023
aF1.057532787322998
aF0.6477072238922119
aF1.2597160339355469
aF1.2571210861206055
aF1.4615728855133057
aF0.7503340244293213
aF1.8696751594543457
aF1.2638599872589111
aF1.4675230979919434
aF1.8640038967132568
aF2.069434881210327
aF1.7714550495147705
aF1.2620468139648438
aF0.9584600925445557
aF1.4674668312072754
aF1.3660869598388672
aF1.364884853363037
aF1.160351037979126
aF1.0602350234985352
aF1.2636489868164062
aF1.3651070594787598
aF1.2643799781799316
aF1.7713382244110107
aF1.2703449726104736
aF1.3645961284637451
aF0.7517797946929932
aF1.5653090476989746
aF1.4703810214996338
aF1.0528721809387207
aF0.7583341598510742
aF1.365257978439331
aF1.1615569591522217
aF0.9621191024780273
aF1.4679310321807861
aF2.2756729125976562
aF1.362027883529663
aF1.4637260437011719
aF1.2627549171447754
aF1.0620758533477783
aF1.265873908996582
aF1.4682879447937012
aF1.469167947769165
aF1.161013126373291
aF1.0594820976257324
aF1.5693359375
aF1.9765338897705078
aF2.1726319789886475
aF0.8534610271453857
aF1.0633530616760254
aF1.5700139999389648
aF1.466080904006958
aF2.0799100399017334
aF4.481106996536255
aF1.7726190090179443
aF1.0630931854248047
aF0.8569421768188477
aF1.1750240325927734
aF1.1646840572357178
aF2.277444839477539
aF1.4792280197143555
aF0.5443038940429688
aF2.168872117996216
aF1.1642189025878906
aF1.6710429191589355
aF0.8559658527374268
aF1.366076946258545
aF0.9575808048248291
aF1.6711649894714355
aF1.9696578979492188
aF1.7746210098266602
aF1.571742057800293
aF1.3696000576019287
aF1.5682260990142822
aF1.1652607917785645
aF4.291605234146118
aF0.8559610843658447
aF2.379188060760498
aF1.482787847518921
aF1.6751251220703125
aF2.2820799350738525
aF1.5735249519348145
aF4.689056873321533
aF1.4698500633239746
aF1.1675169467926025
aF1.267474889755249
aF1.9764389991760254
aF1.1661012172698975
aF1.3679921627044678
aF1.0622010231018066
aF0.652116060256958
aF2.3810341358184814
aF1.572585105895996
aF1.7751188278198242
aF1.7742538452148438
aF1.878589153289795
aF1.0614349842071533
aF1.9777989387512207
aF1.4694781303405762
aF1.1652448177337646
aF2.194430112838745
aF3.083950996398926
aF2.5847508907318115
aF1.064957857131958
aF1.472641944885254
aF0.9609529972076416
aF1.4736969470977783
aF1.1672499179840088
aF2.4789791107177734
aF2.888896942138672
aF2.076462984085083
aF1.2680459022521973
aF1.367603063583374
aF1.0612411499023438
aF1.269469976425171
aF3.1869759559631348
aF9.596802949905396
aF1.6763200759887695
aF1.2667090892791748
aF2.7852628231048584
aF0.9699289798736572
aF1.4728291034698486
aF1.2708039283752441
aF1.7771530151367188
aF1.4732239246368408
aF7.192007064819336
aF0.8592619895935059
aF2.0833489894866943
aF0.8569338321685791
aF1.062643051147461
aF1.4723789691925049
aF1.4727602005004883
aF1.880439043045044
asg7
(lp38
F1.7659492095077312
aF0.33039519078904744
aF1.957153581684581
aF1.232491282108508
aF1.5390133196486708
aF1.0926763618047006
aF1.7569523665852576
aF1.7590327539683535
aF2.985324049483016
aF1.3056404517623885
aF1.4303133343299974
aF2.496160389981346
aF0.6338920135965468
aF2.869392320175688
aF0.9101170070118891
aF1.7403929746590914
aF2.0906826033746846
aF1.3046349266717374
aF1.4020649953234643
aF3.471975951495673
aF1.8044666929923385
aF2.096585744237357
aF1.198586490955964
aF2.0635010844377626
aF0.31067116962026486
aF2.266471271335023
aF1.3151883687620203
aF2.43298900362714
aF1.2817353421235764
aF0.5175657166786662
aF1.1208629621218
aF1.5315168861612463
aF1.9459970376517532
aF0.8429001682212529
aF1.200374142336213
aF1.0208363677115828
aF1.1363721397009812
aF1.660076465675098
aF1.8880367892521492
aF1.1788197637562874
aF1.9877784982883302
aF1.3830171988616835
aF1.0856366342976407
aF0.9439927773776041
aF1.9179984049719596
aF0.9468562092977901
aF1.0841042652040689
aF2.985870847309975
aF1.2497858762786869
aF2.2496103718065883
aF1.0880096146358513
aF2.552284035754835
aF2.324376997163939
aF1.6549331841406858
aF1.6667349034262686
aF0.8087752786060386
aF2.2593598733682665
aF1.710699032644106
aF1.2988761000525495
aF1.2085982200996357
aF1.3878491923564882
aF1.4256774264563883
aF1.4709664187383
aF1.4861972664853234
aF1.2777604578674169
aF1.647993980750473
aF1.758367541877238
aF2.6693014316463786
aF2.1167879675777024
aF1.6441777343120525
aF0.7370622153176191
aF1.709135992783269
aF1.1529411564383374
aF1.806585992327553
aF2.1866372651155404
aF1.8444084821707911
aF1.631211510632406
aF1.7250842033608988
aF3.2484613084842016
aF1.630847464407117
aF1.4274921962498515
aF1.9981260289794616
aF1.6634425233217194
aF1.0745700277097814
aF1.15582290845513
aF2.952506466970276
aF0.4576578104915947
aF0.907321916262053
aF2.367088469861293
aF1.5021660128307723
aF1.0111981273009405
aF1.8347925780625427
aF2.3913416190907344
aF1.792301180590346
aF2.4049906320041723
aF1.5656855833666665
aF1.8299513085675156
aF1.8483573394538633
aF1.169735245981929
aF2.344024550709634
aF2.812350438543012
aF0.48331985108922937
aF1.3681631470600888
aF0.28174803600048626
aF0.6171132615423733
aF0.46303023050909625
aF1.1503157623071274
aF1.9493033785340796
aF1.325212095211697
aF1.908998772858602
aF1.824468720281443
aF2.913385107992897
aF0.43954993537399906
aF1.357542994140978
aF2.021853039531138
aF0.57962785098121
aF2.427260715197934
aF1.538808463209855
aF1.511785069333116
aF1.1217234047406213
aF1.6950396007227881
aF1.1048795161683056
aF1.293955515530133
aF1.1017371347485019
aF1.8779844229729756
aF3.459633343194745
aF1.8547568301643371
aF0.830140676132099
aF0.9436905861814414
aF1.5239302540160733
aF1.8010852538417224
aF1.349365702215277
aF1.3918226317259899
aF2.1674459330423037
aF2.29323893106336
aF2.530279392029697
aF1.9905135583348175
aF3.137213389685618
aF1.3952600610030559
aF0.6991739006506275
aF1.489114548862034
aF1.9152634007508624
aF0.3579552959398498
aF2.152202878449202
aF1.3186254267836386
aF1.7868138251200316
aF2.0143463664786254
aF1.8408265376919566
aF1.9607843060425372
aF1.4821375049291556
aF1.0117190088317007
aF0.3899997661995834
aF1.8165622427795074
aF1.8066157490139825
aF2.3333580449020226
aF1.7702140515214746
aF1.7904711108787352
aF2.95895675682026
aF1.5088284810479824
aF1.7914070375120625
aF1.1737806826512398
aF2.134633225851381
aF1.7709411127922279
aF2.0408907967216243
aF2.267227660814205
aF0.25408281750865447
aF1.003860031627094
aF1.1055220932907157
aF1.2779727164704289
aF1.3405768661808997
aF0.8962737496905478
aF1.4276297653620336
aF1.7506167569661109
aF0.301339438442963
aF0.3646832102412254
aF1.0420194190632566
aF2.362186367826711
aF0.25316170515396197
aF2.541883089824916
aF1.9274638415398533
aF1.326353230566889
aF0.7839129070894488
aF1.6263809009911112
aF1.2815463987649052
aF1.1477107380764227
aF1.1629337467487106
aF2.480265164771131
aF1.4951152193552246
aF2.560136021662019
aF2.945469180115107
aF1.6629759211379505
aF2.596164043794782
aF1.6351243760107226
aF1.9327314305415555
aF1.6798420595311994
aF1.8463787182117464
aF0.8489095774346122
aF1.1337714229770746
aF1.0268486829937011
aF1.7543773179040794
aF1.009390252958034
aF2.2109155879930253
aF0.38715034111619046
aF1.694016236542257
aF1.8640014100811102
aF3.00858805275693
aF1.2638989459384598
aF3.2296038266141305
aF2.173273355651006
aF3.2220552236243747
aF1.942083398787397
aF1.2685900509270702
aF2.1691763446157566
aF2.7008188308532595
aF1.485900055368395
aF0.5669717021545131
aF0.3508412347403573
aF1.506756162593665
aF1.1572624061352317
aF0.9588002586961472
aF1.1886859220059012
aF2.4487493111947636
aF1.7442506288292716
aF1.319091736892399
aF1.2928028953135953
aF1.7151246481538127
aF0.7852051861655924
aF1.1547196699602198
aF1.2729527645408567
aF2.934871604425807
aF2.380297768428585
aF1.3454639331589793
aF0.5762280027434535
aF0.6013340270806132
aF1.2797341210429551
aF1.019808248986227
aF1.4108783442021593
aF2.5494610012595054
aF1.5141172955986986
aF2.597348058578029
aF1.602340482629746
aF1.4621560470654702
aF2.910839804710064
aF0.23679963798083334
aF0.46426949447217486
aF1.9402884138911864
aF1.7758053398870002
aF1.6915092238820006
aF1.588164736304793
aF1.9622631764209923
asg9
(lp39
I6
aI8
aI9
aI7
aI10
aI11
aI3
aI24
aI18
aI12
aI14
aI3
aI8
aI19
aI33
aI4
aI10
aI9
aI12
aI9
aI6
aI9
aI10
aI12
aI8
aI16
aI8
aI19
aI15
aI8
aI12
aI8
aI9
aI14
aI5
aI13
aI15
aI17
aI12
aI4
aI7
aI13
aI7
aI14
aI9
aI22
aI10
aI16
aI14
aI10
aI9
aI6
aI13
aI13
aI10
aI9
aI17
aI9
aI7
aI10
aI9
aI13
aI6
aI15
aI11
aI12
aI10
aI6
aI11
aI12
aI6
aI10
aI13
aI15
aI13
aI10
aI12
aI12
aI12
aI5
aI10
aI8
aI15
aI7
aI10
aI10
aI12
aI109
aI10
aI8
aI28
aI6
aI7
aI12
aI13
aI10
aI20
aI7
aI13
aI46
aI14
aI12
aI9
aI9
aI14
aI15
aI10
aI9
aI10
aI13
aI8
aI13
aI10
aI14
aI26
aI12
aI12
aI9
aI9
aI3
aI10
aI9
aI12
aI6
aI16
aI10
aI12
aI14
aI16
aI16
aI10
aI8
aI13
aI12
aI10
aI6
aI9
aI12
aI10
aI10
aI13
aI8
aI12
aI5
aI9
aI10
aI8
aI5
aI9
aI9
aI5
aI10
aI17
aI7
aI12
aI9
aI9
aI10
aI12
aI10
aI8
aI6
aI11
aI16
aI15
aI5
aI8
aI13
aI12
aI17
aI40
aI13
aI8
aI6
aI6
aI8
aI19
aI9
aI3
aI13
aI10
aI14
aI6
aI10
aI6
aI13
aI13
aI14
aI14
aI6
aI7
aI9
aI25
aI6
aI21
aI7
aI13
aI20
aI12
aI40
aI10
aI8
aI9
aI16
aI10
aI10
aI8
aI5
aI15
aI12
aI10
aI11
aI13
aI4
aI16
aI12
aI8
aI14
aI26
aI14
aI6
aI10
aI7
aI9
aI7
aI15
aI23
aI10
aI8
aI8
aI9
aI9
aI26
aI82
aI13
aI9
aI16
aI5
aI10
aI9
aI13
aI10
aI71
aI6
aI16
aI4
aI5
aI10
aI10
aI10
asg11
(lp40
I5
aI7
aI8
aI6
aI9
aI10
aI2
aI23
aI17
aI11
aI13
aI2
aI7
aI18
aI32
aI3
aI9
aI8
aI11
aI8
aI5
aI8
aI9
aI11
aI7
aI15
aI7
aI18
aI14
aI7
aI11
aI7
aI8
aI13
aI4
aI12
aI14
aI16
aI11
aI3
aI6
aI12
aI6
aI13
aI8
aI21
aI9
aI15
aI13
aI9
aI8
aI5
aI12
aI12
aI9
aI8
aI16
aI8
aI6
aI9
aI8
aI12
aI5
aI14
aI10
aI11
aI9
aI5
aI10
aI11
aI5
aI9
aI12
aI14
aI12
aI9
aI11
aI11
aI11
aI4
aI9
aI7
aI14
aI6
aI9
aI9
aI11
aI108
aI9
aI7
aI27
aI5
aI6
aI11
aI12
aI9
aI19
aI6
aI12
aI45
aI13
aI11
aI8
aI8
aI13
aI14
aI9
aI8
aI9
aI12
aI7
aI12
aI9
aI13
aI25
aI11
aI11
aI8
aI8
aI2
aI9
aI8
aI11
aI5
aI15
aI9
aI11
aI13
aI15
aI15
aI9
aI7
aI12
aI11
aI9
aI5
aI8
aI11
aI9
aI9
aI12
aI7
aI11
aI4
aI8
aI9
aI7
aI4
aI8
aI8
aI4
aI9
aI16
aI6
aI11
aI8
aI8
aI9
aI11
aI9
aI7
aI5
aI10
aI15
aI14
aI4
aI7
aI12
aI11
aI16
aI39
aI12
aI7
aI5
aI5
aI7
aI18
aI8
aI2
aI12
aI9
aI13
aI5
aI9
aI5
aI12
aI12
aI13
aI13
aI5
aI6
aI8
aI24
aI5
aI20
aI6
aI12
aI19
aI11
aI39
aI9
aI7
aI8
aI15
aI9
aI9
aI7
aI4
aI14
aI11
aI9
aI10
aI12
aI3
aI15
aI11
aI7
aI13
aI25
aI13
aI5
aI9
aI6
aI8
aI6
aI14
aI22
aI9
aI7
aI7
aI8
aI8
aI25
aI81
aI12
aI8
aI15
aI4
aI9
aI8
aI12
aI9
aI70
aI5
aI15
aI3
aI4
aI9
aI9
aI9
assS'GPY    '
p41
(dp42
g3
(lp43
I01
aI01
aI01
aI01
aI01
aI01
aI01
aI00
aI01
aI01
aI01
aI01
aI01
aI01
aI01
aI01
aI01
aI00
aI01
aI01
aI01
aI01
aI01
aI01
aI00
aI00
aI01
aI00
aI00
aI01
aI00
aI00
aI00
aI00
aI00
aI01
aI01
aI00
aI01
aI01
aI01
aI00
aI01
aI00
aI01
aI01
aI01
aI00
aI00
aI00
aI01
aI01
aI01
aI00
aI01
aI01
aI00
aI00
aI00
aI01
aI01
aI00
aI01
aI00
aI01
aI00
aI01
aI01
aI01
aI01
aI01
aI01
aI00
aI01
aI01
aI00
aI01
aI01
aI00
aI01
aI01
aI01
aI01
aI00
aI01
aI01
aI00
aI00
aI01
aI00
aI00
aI01
aI01
aI00
aI01
aI01
aI01
aI00
aI00
aI00
aI01
aI00
aI01
aI00
aI01
aI01
aI00
aI01
aI01
aI01
aI01
aI01
aI01
aI00
aI00
aI00
aI01
aI00
aI01
aI00
aI00
aI01
aI01
aI01
aI01
aI01
aI01
aI01
aI00
aI00
aI00
aI01
aI01
aI01
aI01
aI01
aI01
aI01
aI01
aI01
aI01
aI01
aI01
aI00
aI01
aI01
aI00
aI00
aI01
aI01
aI00
aI01
aI01
aI00
aI00
aI01
aI00
aI01
aI01
aI01
aI00
aI01
aI00
aI01
aI01
aI01
aI01
aI00
aI01
aI00
aI00
aI01
aI01
aI01
aI01
aI01
aI01
aI01
aI01
aI01
aI00
aI01
aI01
aI01
aI00
aI01
aI01
aI01
aI01
aI00
aI01
aI01
aI00
aI00
aI00
aI01
aI01
aI01
aI01
aI01
aI01
aI01
aI01
aI01
aI01
aI00
aI00
aI01
aI01
aI00
aI01
aI00
aI01
aI01
aI01
aI00
aI01
aI00
aI00
aI01
aI01
aI01
aI00
aI00
aI01
aI01
aI01
aI00
aI01
aI00
aI00
aI01
aI00
aI00
aI01
aI01
aI00
aI01
aI01
aI01
aI00
aI01
aI00
aI01
aI01
aI01
aI01
aI01
aI01
aI00
asg5
(lp44
F0.7450540065765381
aF5.09798002243042
aF2.5830612182617188
aF2.4818079471588135
aF2.4315359592437744
aF1.23026704788208
aF0.6833069324493408
aF5.855991840362549
aF2.410653829574585
aF1.5627119541168213
aF1.461643934249878
aF1.2849221229553223
aF0.8449118137359619
aF1.738327980041504
aF2.0796170234680176
aF0.9765210151672363
aF1.333906888961792
aF11.866565942764282
aF4.8273351192474365
aF0.8053770065307617
aF0.8344988822937012
aF0.9076318740844727
aF1.086824893951416
aF0.99334716796875
aF1.7802491188049316
aF3.4815239906311035
aF1.9773280620574951
aF2.72202205657959
aF2.6250391006469727
aF1.5028469562530518
aF2.264920949935913
aF1.8707249164581299
aF2.957285165786743
aF3.34507417678833
aF1.3169071674346924
aF1.0517609119415283
aF3.969205856323242
aF1.5336010456085205
aF1.0273008346557617
aF0.5072150230407715
aF1.2893271446228027
aF1.1681101322174072
aF0.940500020980835
aF1.4219489097595215
aF1.4614269733428955
aF2.6517281532287598
aF1.0210731029510498
aF7.0290210247039795
aF2.9961228370666504
aF2.0334839820861816
aF1.1098949909210205
aF0.9977312088012695
aF1.5202620029449463
aF3.051640033721924
aF1.3087210655212402
aF1.9182958602905273
aF4.573513984680176
aF2.4068009853363037
aF2.385952949523926
aF1.5527617931365967
aF1.123891830444336
aF1.2596731185913086
aF3.860969066619873
aF1.4345791339874268
aF4.4489641189575195
aF3.4043750762939453
aF1.2360081672668457
aF1.9563710689544678
aF0.8866269588470459
aF1.0633268356323242
aF1.0505340099334717
aF1.8964531421661377
aF0.9951760768890381
aF3.423084020614624
aF1.2101430892944336
aF1.867969036102295
aF0.8644239902496338
aF2.53676700592041
aF1.8547520637512207
aF1.424475908279419
aF2.361910820007324
aF1.4526591300964355
aF1.162903070449829
aF2.9958229064941406
aF1.5384650230407715
aF2.8677239418029785
aF1.737842082977295
aF4.4922099113464355
aF1.6683521270751953
aF2.1189210414886475
aF1.569849967956543
aF1.371182918548584
aF1.520582914352417
aF1.1579041481018066
aF1.6614701747894287
aF1.0603439807891846
aF2.8601701259613037
aF0.8916561603546143
aF2.25061297416687
aF2.7932910919189453
aF1.158046007156372
aF1.1115610599517822
aF1.0875849723815918
aF3.0407230854034424
aF2.5583808422088623
aF1.2469699382781982
aF10.079720973968506
aF3.371894121170044
aF1.458522081375122
aF3.4391841888427734
aF0.9326541423797607
aF3.529029130935669
aF1.4546689987182617
aF2.6040661334991455
aF1.6667048931121826
aF1.6501619815826416
aF1.2832341194152832
aF1.6127779483795166
aF1.21402907371521
aF1.3577978610992432
aF6.177978038787842
aF2.842036008834839
aF1.5117480754852295
aF1.3909718990325928
aF2.1671950817108154
aF2.3120322227478027
aF1.785667896270752
aF4.199936866760254
aF3.8393449783325195
aF2.0977869033813477
aF2.2391278743743896
aF0.892786979675293
aF1.6451971530914307
aF1.4530329704284668
aF2.371170997619629
aF1.0476608276367188
aF1.169654130935669
aF0.7956349849700928
aF3.6061811447143555
aF2.183069944381714
aF1.496431827545166
aF1.0980820655822754
aF0.7747290134429932
aF3.2260279655456543
aF1.4774599075317383
aF1.058251142501831
aF1.7491710186004639
aF1.3096940517425537
aF0.8424417972564697
aF0.9153420925140381
aF4.349475145339966
aF3.8651390075683594
aF1.252380132675171
aF2.5723330974578857
aF2.330655097961426
aF0.8669400215148926
aF1.421220064163208
aF1.3483870029449463
aF1.0848808288574219
aF3.1080920696258545
aF4.096007823944092
aF0.924760103225708
aF2.9311580657958984
aF1.7464659214019775
aF2.0820069313049316
aF1.7565550804138184
aF1.3308570384979248
aF3.8028948307037354
aF2.119831085205078
aF4.843317985534668
aF5.266736030578613
aF1.1090259552001953
aF1.7647271156311035
aF0.8967490196228027
aF1.374441146850586
aF1.3923370838165283
aF2.20735502243042
aF1.692289113998413
aF0.939316987991333
aF1.4811820983886719
aF4.767559051513672
aF0.6481468677520752
aF1.810352087020874
aF1.9143338203430176
aF2.5310239791870117
aF1.0051848888397217
aF1.4118449687957764
aF1.4106159210205078
aF0.9546990394592285
aF2.2289350032806396
aF1.1783089637756348
aF1.5386829376220703
aF3.5235841274261475
aF1.2281079292297363
aF4.2031090259552
aF2.36340594291687
aF0.8251190185546875
aF3.1452410221099854
aF1.2738299369812012
aF2.967540979385376
aF3.9142439365386963
aF1.2933440208435059
aF2.286083936691284
aF1.0391860008239746
aF1.4528679847717285
aF2.9134669303894043
aF1.1058058738708496
aF0.8784840106964111
aF1.7586119174957275
aF1.3794810771942139
aF3.232361078262329
aF3.0797839164733887
aF1.5786099433898926
aF2.951727867126465
aF2.9612369537353516
aF3.981245994567871
aF1.840669870376587
aF1.8439199924468994
aF3.1886770725250244
aF2.734471082687378
aF1.800441026687622
aF2.0225110054016113
aF2.5883219242095947
aF1.6049158573150635
aF2.7203638553619385
aF1.6129090785980225
aF2.7338168621063232
aF1.640429973602295
aF1.6567089557647705
aF2.820476770401001
aF1.4591121673583984
aF1.1471319198608398
aF3.2500619888305664
aF6.4817750453948975
aF2.5205249786376953
aF3.327357053756714
aF1.165769100189209
aF0.9594230651855469
aF4.845570087432861
aF1.1706321239471436
aF1.1738858222961426
aF0.8989789485931396
aF4.822472095489502
aF2.6144120693206787
aF1.7116467952728271
aF1.0332629680633545
aF2.493147134780884
aF3.100771903991699
aF4.459990978240967
aF2.205501079559326
asg7
(lp45
F1.737248801058813
aF0.42312959450416393
aF2.623256062474401
aF1.222556030431649
aF2.3979428631198543
aF2.086293870784115
aF3.2422599807414354
aF1.1739328027019715
aF2.8634912672136887
aF1.284586048039508
aF3.5051382288396074
aF2.5342887614151355
aF0.5683907339233288
aF2.8686271283432636
aF0.9101170070118891
aF2.6048108837198374
aF2.085192339190318
aF0.5012427842992324
aF2.7717521515614405
aF3.515651445291902
aF3.504736101621012
aF2.19025189279384
aF1.2626459889602146
aF1.9247995749642577
aF0.22496352877602305
aF2.725013228583773
aF1.7963034805611708
aF3.925173279586359
aF2.1951819280641938
aF0.5304419079490024
aF1.8596194042047838
aF0.5076352792973505
aF4.438534027556105
aF1.7870065200680825
aF0.43704610498286495
aF1.0208363677115828
aF1.7729407418876721
aF2.3875917750535227
aF2.7829792590671025
aF1.134831199632303
aF1.962030887032243
aF2.081539210265314
aF2.732120444070885
aF1.670806233082402
aF1.8183998459906774
aF1.3700057364227807
aF1.2181915737494506
aF4.184150063768584
aF0.7451880312536985
aF4.154686081718511
aF1.073912857100326
aF2.5172718832224437
aF2.375797506079731
aF2.0760949117338594
aF1.608279899648505
aF0.6525040958353422
aF3.2305253133566816
aF3.0695385718985917
aF3.33234100257543
aF1.0925139049287529
aF2.057184172411976
aF0.930348648862391
aF3.514504002192378
aF2.070208744640757
aF2.3147750650634715
aF1.4726566306249287
aF1.8028752902698595
aF2.68679571004541
aF2.123494099306059
aF1.8154328712361196
aF0.680098936711163
aF1.4930050365307497
aF1.973649184058385
aF3.0191017737296293
aF2.9354235248135905
aF1.5510463474151448
aF2.3940751154599766
aF1.676665888137158
aF3.865064070364178
aF2.669361536069551
aF0.6316518988492
aF1.098115632327703
aF1.6347711932075026
aF2.612386497928635
aF0.7261518309379834
aF2.6146853242114485
aF0.4107486051968179
aF1.740533884464657
aF2.3332170778888948
aF2.2462982544939067
aF0.9194790648655117
aF1.8899443245770644
aF2.266512089590402
aF1.9608172908214598
aF2.462672133367533
aF2.222584396046776
aF1.7095968819427505
aF2.349421753272936
aF1.145630945358167
aF1.7128592321515659
aF1.7596146054184483
aF0.5038218328956314
aF1.3596517022936931
aF0.429069888628081
aF1.822452370047087
aF1.179085343652468
aF0.4996671363324503
aF1.8994275165299244
aF1.299454119177695
aF1.7361287484785648
aF1.8264249260948802
aF3.1958619532922765
aF0.4254413047167374
aF1.3559584663752673
aF2.5525281085358595
aF0.5691639978691437
aF2.429313507146496
aF2.1831525067785185
aF1.379257079613003
aF1.861464869719632
aF3.744919851375266
aF3.7574926849372785
aF1.8662049043196478
aF0.33727317556517944
aF1.8416062359341947
aF4.382669382516935
aF2.6328026147405996
aF0.8272565139622097
aF1.7430699361215596
aF1.6058529796388914
aF1.8930886802115066
aF2.1987806584480114
aF0.6030059574583342
aF3.2478845939158965
aF2.355106449399129
aF2.640548110662009
aF1.928433228182986
aF3.075419370001456
aF0.4913629640742227
aF0.45571513125246493
aF1.4811766732501157
aF1.8773917203991726
aF0.34994378845141366
aF1.9651475777196088
aF1.67923760537979
aF1.7831638710607722
aF3.192290284090077
aF2.567052924951353
aF3.013343185658146
aF1.541616581102877
aF2.734471794646358
aF0.4056184102064651
aF1.739338411674681
aF2.592552846531976
aF2.9306742647036277
aF1.51251267976454
aF1.0788415093179884
aF2.977402890953726
aF2.1612897056832465
aF1.6906709060971856
aF3.785012622340377
aF2.6420205249607362
aF1.8684402194932248
aF3.0108511677511576
aF3.1526638547906733
aF0.2736624199681533
aF0.9678000439045221
aF1.0414409491542422
aF2.098866681236438
aF3.3772504584075085
aF2.5651972681876813
aF1.4237788475273292
aF1.6042440763473473
aF0.9045323117898381
aF1.9010613624100152
aF2.7286865626114034
aF3.772264114416933
aF0.24311190945326105
aF2.5410128223822306
aF1.8873568783000538
aF0.6743999344702899
aF1.48425091557569
aF2.79223261672521
aF1.2653467013137953
aF0.38253973833781957
aF1.3970554831625699
aF0.5732002030794283
aF1.5838016485475699
aF2.559483348515334
aF3.6142094757594094
aF2.5937376641282106
aF2.370948210253194
aF2.3870784645586647
aF2.075309824257295
aF3.129135440171545
aF2.737300537738156
aF0.8890948941022957
aF1.2116640843447755
aF0.9988541070374077
aF1.7775712163200859
aF1.579866964655964
aF1.2494095826807168
aF0.38625434438242934
aF1.6866043251533238
aF2.84253394958081
aF1.2424283272991636
aF1.36905305197303
aF3.12388056348908
aF3.2363160792867456
aF2.935354049654189
aF2.800240190671395
aF1.4274779023702602
aF2.226047941153116
aF1.8697999963086895
aF1.5095441353823404
aF0.5450955655160328
aF0.39897806064316843
aF2.469781727580389
aF0.8965447523844383
aF0.6972491280009627
aF2.7825993361835066
aF2.4014228941416693
aF1.7532394017182407
aF0.9266529815334333
aF1.5109142939829014
aF1.7151246481538127
aF0.8110584098058516
aF1.1244788352692776
aF1.2562339827001336
aF2.1738885884640173
aF2.2762438056941274
aF1.2129528807795509
aF1.2007938560003408
aF0.6013340270806132
aF1.0275035240736248
aF2.0559918529122827
aF1.4108783442021593
aF2.5288336413708246
aF0.4263361293499873
aF2.5933354677212823
aF1.451836617619509
aF1.3790450085627075
aF2.910839804710064
aF0.24498625563058551
aF0.9887081197251051
aF2.6769609659744162
aF1.7709879603490162
aF1.2102444846889793
aF2.5243075634447845
aF3.2414943268356238
asg9
(lp46
I12
aI75
aI38
aI40
aI40
aI18
aI12
aI67
aI35
aI19
aI22
aI18
aI10
aI24
aI33
aI18
aI22
aI116
aI56
aI12
aI11
aI14
aI17
aI15
aI30
aI57
aI21
aI38
aI25
aI22
aI38
aI27
aI44
aI46
aI21
aI13
aI55
aI17
aI15
aI7
aI19
aI16
aI16
aI22
aI20
aI39
aI15
aI74
aI45
aI30
aI16
aI16
aI23
aI51
aI18
aI17
aI61
aI37
aI37
aI22
aI16
aI20
aI54
aI21
aI43
aI52
aI19
aI30
aI13
aI16
aI17
aI26
aI13
aI55
aI15
aI27
aI14
aI39
aI31
aI14
aI40
aI21
aI17
aI51
aI24
aI43
aI26
aI65
aI16
aI23
aI24
aI17
aI19
aI18
aI23
aI15
aI44
aI14
aI29
aI40
aI16
aI15
aI16
aI51
aI41
aI20
aI128
aI46
aI23
aI51
aI9
aI44
aI23
aI40
aI30
aI23
aI11
aI26
aI19
aI19
aI92
aI41
aI17
aI24
aI35
aI36
aI26
aI55
aI46
aI32
aI34
aI15
aI24
aI19
aI23
aI15
aI15
aI14
aI53
aI35
aI22
aI16
aI12
aI45
aI19
aI15
aI28
aI20
aI13
aI11
aI83
aI58
aI18
aI37
aI35
aI13
aI25
aI21
aI15
aI44
aI57
aI14
aI41
aI17
aI23
aI16
aI22
aI49
aI22
aI66
aI71
aI16
aI30
aI14
aI23
aI22
aI28
aI19
aI8
aI16
aI74
aI10
aI17
aI29
aI38
aI15
aI21
aI19
aI17
aI33
aI19
aI23
aI49
aI18
aI74
aI37
aI12
aI48
aI18
aI42
aI66
aI14
aI20
aI15
aI17
aI50
aI15
aI14
aI26
aI20
aI52
aI33
aI22
aI36
aI40
aI56
aI29
aI30
aI43
aI39
aI16
aI29
aI40
aI21
aI44
aI15
aI42
aI24
aI27
aI42
aI21
aI17
aI46
aI82
aI38
aI51
aI16
aI8
aI58
aI19
aI16
aI14
aI71
aI29
aI27
aI16
aI41
aI47
aI67
aI36
asg11
(lp47
I11
aI74
aI37
aI39
aI39
aI17
aI11
aI66
aI34
aI18
aI21
aI17
aI9
aI23
aI32
aI17
aI21
aI115
aI55
aI11
aI10
aI13
aI16
aI14
aI29
aI56
aI20
aI37
aI24
aI21
aI37
aI26
aI43
aI45
aI20
aI12
aI54
aI16
aI14
aI6
aI18
aI15
aI15
aI21
aI19
aI38
aI14
aI73
aI44
aI29
aI15
aI15
aI22
aI50
aI17
aI16
aI60
aI36
aI36
aI21
aI15
aI19
aI53
aI20
aI42
aI51
aI18
aI29
aI12
aI15
aI16
aI25
aI12
aI54
aI14
aI26
aI13
aI38
aI30
aI13
aI39
aI20
aI16
aI50
aI23
aI42
aI25
aI64
aI15
aI22
aI23
aI16
aI18
aI17
aI22
aI14
aI43
aI13
aI28
aI39
aI15
aI14
aI15
aI50
aI40
aI19
aI127
aI45
aI22
aI50
aI8
aI43
aI22
aI39
aI29
aI22
aI10
aI25
aI18
aI18
aI91
aI40
aI16
aI23
aI34
aI35
aI25
aI54
aI45
aI31
aI33
aI14
aI23
aI18
aI22
aI14
aI14
aI13
aI52
aI34
aI21
aI15
aI11
aI44
aI18
aI14
aI27
aI19
aI12
aI10
aI82
aI57
aI17
aI36
aI34
aI12
aI24
aI20
aI14
aI43
aI56
aI13
aI40
aI16
aI22
aI15
aI21
aI48
aI21
aI65
aI70
aI15
aI29
aI13
aI22
aI21
aI27
aI18
aI7
aI15
aI73
aI9
aI16
aI28
aI37
aI14
aI20
aI18
aI16
aI32
aI18
aI22
aI48
aI17
aI73
aI36
aI11
aI47
aI17
aI41
aI65
aI13
aI19
aI14
aI16
aI49
aI14
aI13
aI25
aI19
aI51
aI32
aI21
aI35
aI39
aI55
aI28
aI29
aI42
aI38
aI15
aI28
aI39
aI20
aI43
aI14
aI41
aI23
aI26
aI41
aI20
aI16
aI45
aI81
aI37
aI50
aI15
aI7
aI57
aI18
aI15
aI13
aI70
aI28
aI26
aI15
aI40
aI46
aI66
aI35
assS'STD    '
p48
(dp49
g3
(lp50
I01
aI01
aI01
aI01
aI01
aI01
aI01
aI00
aI00
aI00
aI00
aI01
aI01
aI01
aI01
aI01
aI01
aI01
aI01
aI01
aI01
aI00
aI00
aI01
aI01
aI00
aI01
aI01
aI01
aI01
aI01
aI01
aI00
aI01
aI01
aI01
aI00
aI00
aI01
aI01
aI01
aI00
aI01
aI00
aI01
aI00
aI01
aI01
aI00
aI00
aI00
aI01
aI01
aI01
aI00
aI00
aI00
aI00
aI01
aI00
aI01
aI00
aI01
aI00
aI01
aI01
aI01
aI01
aI00
aI01
aI01
aI01
aI01
aI01
aI00
aI01
aI00
aI01
aI00
aI00
aI01
aI01
aI00
aI01
aI01
aI00
aI01
aI00
aI01
aI01
aI00
aI01
aI00
aI01
aI01
aI01
aI01
aI01
aI00
aI00
aI00
aI00
aI01
aI01
aI01
aI01
aI01
aI00
aI01
aI00
aI01
aI00
aI01
aI01
aI01
aI01
aI01
aI00
aI00
aI01
aI00
aI00
aI01
aI01
aI00
aI00
aI01
aI00
aI01
aI00
aI00
aI01
aI00
aI01
aI00
aI01
aI01
aI01
aI01
aI01
aI00
aI01
aI01
aI00
aI01
aI01
aI01
aI01
aI00
aI01
aI01
aI01
aI00
aI00
aI01
aI00
aI01
aI00
aI00
aI01
aI01
aI01
aI01
aI00
aI01
aI01
aI01
aI00
aI00
aI00
aI01
aI00
aI01
aI01
aI01
aI00
aI00
aI01
aI01
aI01
aI00
aI01
aI01
aI00
aI01
aI01
aI00
aI00
aI01
aI01
aI01
aI01
aI00
aI01
aI00
aI01
aI00
aI00
aI01
aI00
aI01
aI01
aI01
aI01
aI01
aI01
aI01
aI01
aI00
aI01
aI01
aI01
aI01
aI01
aI00
aI01
aI01
aI00
aI00
aI01
aI01
aI01
aI01
aI01
aI01
aI00
aI00
aI01
aI01
aI00
aI01
aI01
aI00
aI00
aI01
aI01
aI00
aI01
aI01
aI01
aI00
aI01
aI00
aI01
aI01
aI01
aI01
aI01
aI01
aI01
asg5
(lp51
F0.3048689365386963
aF1.39090895652771
aF0.7753779888153076
aF0.7564458847045898
aF2.6471610069274902
aF1.2475001811981201
aF0.2517271041870117
aF2.728631019592285
aF1.2523000240325928
aF2.3998820781707764
aF0.8611669540405273
aF0.507483959197998
aF0.5071570873260498
aF1.7886860370635986
aF2.4420700073242188
aF0.9706540107727051
aF1.8100709915161133
aF1.874405860900879
aF3.417365074157715
aF0.5120220184326172
aF0.6696200370788574
aF0.830193042755127
aF1.7595558166503906
aF0.7858538627624512
aF1.269866943359375
aF0.8234679698944092
aF1.0095970630645752
aF1.2792270183563232
aF1.1804249286651611
aF2.8041188716888428
aF1.8713979721069336
aF1.55116605758667
aF1.894644021987915
aF1.5731639862060547
aF2.5424978733062744
aF1.0128099918365479
aF2.0230209827423096
aF0.8339810371398926
aF1.0003409385681152
aF0.3948550224304199
aF1.1177330017089844
aF1.2324881553649902
aF0.5239410400390625
aF0.9808859825134277
aF0.6913959980010986
aF2.169034004211426
aF0.7110919952392578
aF1.1721889972686768
aF2.415915012359619
aF2.961549997329712
aF1.132624864578247
aF1.564845085144043
aF1.4576709270477295
aF1.6782009601593018
aF1.4437549114227295
aF0.7246279716491699
aF0.8382999897003174
aF1.4657621383666992
aF0.6646909713745117
aF1.1823678016662598
aF2.455235004425049
aF1.0353569984436035
aF1.8785979747772217
aF0.9288949966430664
aF0.7796568870544434
aF0.6015501022338867
aF0.9963841438293457
aF0.4614579677581787
aF1.0209732055664062
aF0.877410888671875
aF0.7304489612579346
aF1.986387014389038
aF0.7842671871185303
aF1.5446219444274902
aF0.9401819705963135
aF0.7860751152038574
aF1.17197585105896
aF0.8560631275177002
aF1.3898000717163086
aF0.7707419395446777
aF0.6276679039001465
aF0.5494999885559082
aF1.0585429668426514
aF1.7270691394805908
aF0.7342400550842285
aF3.9028830528259277
aF1.7657220363616943
aF0.903296947479248
aF0.5964798927307129
aF1.1552741527557373
aF1.1544361114501953
aF1.3264210224151611
aF1.1368420124053955
aF1.9698359966278076
aF1.2552049160003662
aF2.423007011413574
aF1.8706691265106201
aF1.1973168849945068
aF0.8667068481445312
aF1.7451388835906982
aF1.0067639350891113
aF1.0183751583099365
aF0.9775240421295166
aF0.5958819389343262
aF3.074686050415039
aF1.663607120513916
aF0.8123660087585449
aF2.6501238346099854
aF0.8469510078430176
aF1.4046499729156494
aF0.6048259735107422
aF0.9602420330047607
aF1.198979139328003
aF1.8393380641937256
aF2.130629062652588
aF0.9794127941131592
aF0.868812084197998
aF0.6718568801879883
aF1.1644091606140137
aF0.6627390384674072
aF1.1736860275268555
aF2.386775016784668
aF0.8958098888397217
aF1.5994009971618652
aF2.166210889816284
aF0.8310699462890625
aF0.5641989707946777
aF1.0926179885864258
aF1.1445801258087158
aF2.2127959728240967
aF2.2397119998931885
aF0.7658350467681885
aF2.804842948913574
aF1.2319049835205078
aF1.020608901977539
aF0.48285818099975586
aF0.48543405532836914
aF0.6461508274078369
aF0.8404350280761719
aF2.870898962020874
aF0.7692370414733887
aF0.6604208946228027
aF1.337392807006836
aF2.1299779415130615
aF1.8909790515899658
aF1.1170837879180908
aF0.9348561763763428
aF0.9030821323394775
aF2.161406993865967
aF0.9961061477661133
aF1.044006109237671
aF1.9119231700897217
aF1.0551800727844238
aF0.32492613792419434
aF1.1812810897827148
aF0.8230941295623779
aF0.4850940704345703
aF3.0256779193878174
aF1.5265650749206543
aF0.49884915351867676
aF1.5018789768218994
aF0.690532922744751
aF0.6265089511871338
aF1.0943620204925537
aF1.5403430461883545
aF0.5011239051818848
aF0.43199992179870605
aF0.8583559989929199
aF0.9700310230255127
aF1.519981861114502
aF2.857969045639038
aF3.005643129348755
aF0.5204360485076904
aF0.3383908271789551
aF1.3179230690002441
aF1.329401969909668
aF2.3695008754730225
aF0.5549368858337402
aF0.3444678783416748
aF1.2992851734161377
aF1.0754289627075195
aF0.9065048694610596
aF0.5444130897521973
aF1.2467360496520996
aF0.5372471809387207
aF1.3137469291687012
aF1.400735855102539
aF2.3570339679718018
aF0.5955159664154053
aF0.4282701015472412
aF0.5420799255371094
aF1.1861639022827148
aF2.256742000579834
aF0.3659331798553467
aF2.188547134399414
aF1.060405969619751
aF1.6852619647979736
aF1.1622140407562256
aF1.2064769268035889
aF2.1366701126098633
aF0.9543049335479736
aF0.962893009185791
aF0.5932848453521729
aF1.025442123413086
aF0.828873872756958
aF0.8381400108337402
aF0.5503380298614502
aF0.23561811447143555
aF0.8087868690490723
aF0.8361120223999023
aF1.3849449157714844
aF1.2957007884979248
aF1.0397820472717285
aF0.3069899082183838
aF0.9700660705566406
aF0.9791090488433838
aF0.9557638168334961
aF1.724255084991455
aF1.811816930770874
aF2.4535250663757324
aF0.45915818214416504
aF0.8746190071105957
aF0.8597111701965332
aF0.9368100166320801
aF0.6032350063323975
aF4.493904113769531
aF2.561398983001709
aF0.9750690460205078
aF0.623297929763794
aF2.278472900390625
aF1.1027030944824219
aF0.6486799716949463
aF1.5991780757904053
aF1.3763179779052734
aF0.9395110607147217
aF0.9317278861999512
aF1.1063740253448486
aF0.5307879447937012
aF0.6901109218597412
aF0.5485410690307617
aF1.2839150428771973
aF1.0811569690704346
aF1.1138811111450195
aF1.5168628692626953
aF1.602856159210205
aF0.286639928817749
aF1.409296989440918
aF0.6778688430786133
aF1.4079868793487549
aF1.5042288303375244
asg7
(lp52
F1.7398896295056916
aF0.3362254025246905
aF2.4687507377583
aF1.2225669007796347
aF1.4724751310297437
aF2.242972551113166
aF3.250171408594864
aF3.286287729587169
aF4.093766981463165
aF1.3770951467165442
aF3.6539750793123233
aF2.4885352335768687
aF0.6338920135965468
aF2.8694646673233706
aF0.7933045051775146
aF2.7377282836028214
aF2.1655919684662006
aF1.02973357600771
aF2.64209091189324
aF3.4850195271202673
aF3.259563439437696
aF3.048073262005371
aF1.9397016420113486
aF1.960366716187634
aF0.21446563996653858
aF3.080987696740987
aF2.01212550310295
aF2.7076768119940553
aF2.2081671038905624
aF1.090870249640264
aF1.2105399455124228
aF1.1873174135479154
aF3.1265717195448968
aF2.2930833431462063
aF1.1451574225176697
aF1.1131122562247842
aF2.0532632564543114
aF2.8886561187556823
aF2.778793598875463
aF1.1349241283172538
aF2.0145059870729436
aF2.93404467289585
aF1.7634124431717517
aF2.6113379718500647
aF1.76371246691661
aF2.1117993747538897
aF1.2636061031663008
aF2.985870847309975
aF1.896777227982199
aF3.9653390617382476
aF1.2037803468399297
aF2.55318351278464
aF2.326717926307237
aF2.46381911593617
aF2.548665753168184
aF0.6229178821241138
aF1.8578563789148408
aF2.7906563545534047
aF1.2606740586067013
aF1.4167610184138022
aF2.7965788838959065
aF2.8131793989251412
aF3.2922628460306353
aF2.58102611133585
aF1.2799063780820599
aF1.5392302482896751
aF1.8203512005525764
aF2.6833263913535097
aF3.0015542084282885
aF1.7723682075497564
aF0.6791154172988014
aF1.946011584069232
aF1.8873378805554324
aF2.876163743002219
aF2.585357232502279
aF2.573188481455356
aF2.260417716063634
aF1.6601549768920956
aF3.0978103285500973
aF2.963782690422649
aF1.335993313961659
aF1.9981260289794616
aF2.144809889372396
aF1.105433798296
aF1.0188300981213643
aF2.4489821441828012
aF0.42236634402521406
aF0.6708526048486001
aF2.367088469861293
aF1.4913825998899406
aF2.0098697060288084
aF1.8480461244347985
aF2.3956576163269747
aF3.0039136679751013
aF2.4149480138380617
aF3.0190230077901337
aF1.6861473044486117
aF2.4824669295732242
aF1.999492403910222
aF1.7230801478533873
aF2.0907616444610486
aF0.46067230967685985
aF1.3653892145523028
aF0.2703600636489385
aF1.5857816864907286
aF0.5809234577652541
aF1.1194740654125257
aF2.438772472549912
aF1.2903951518837236
aF1.7067843488113685
aF1.8324614549399445
aF1.7011271139689723
aF0.5373879490377014
aF1.3294154501088993
aF2.7742498913209586
aF0.5787223011738702
aF2.441160322237647
aF1.982330109151809
aF1.7911504808938792
aF1.7998956729830242
aF2.5529008753187052
aF2.554798277848475
aF1.9147355003788395
aF1.0721895764432248
aF2.6805515192844505
aF1.1707520737463135
aF2.6479284948898556
aF2.2216183665039266
aF0.9436905861814414
aF1.7839507904405487
aF2.9958820161435673
aF2.4419869631759243
aF1.7139693320366776
aF3.1457038298093467
aF3.615892587511722
aF2.530279392029697
aF2.7616323938514173
aF3.137213389685618
aF1.4472582726172443
aF1.351776645816412
aF1.4993533872235356
aF1.9237780418431185
aF0.3751567589082554
aF3.18769356253689
aF1.4296434418976796
aF1.795275770570858
aF3.3269450282719926
aF1.8713677110766311
aF3.276845732862578
aF1.5050702129602582
aF3.484143400093681
aF0.4140806179684754
aF2.0589496039665964
aF2.634559257274255
aF3.813601461434357
aF1.8619671542640046
aF1.7561686401808405
aF4.934417647524302
aF2.8373945949159616
aF1.7366743920839438
aF1.172818847701923
aF2.3709449734336463
aF1.780711035982759
aF4.156242185975637
aF3.1595532623482065
aF0.26181483878006473
aF0.969142638612957
aF1.4195678565114993
aF2.5138544011485386
aF1.2673413001866154
aF0.8962737496905478
aF0.885120192078776
aF3.2379865512952213
aF0.30145902712618206
aF0.36985413107623755
aF1.7959483974906703
aF4.597689359404132
aF0.25316170515396197
aF2.541883089824916
aF1.9380773880382378
aF1.9304470986137612
aF1.4925877877072018
aF2.7966439218646233
aF1.3868739059299273
aF1.1486493023965683
aF1.3324461793839395
aF0.329817928322733
aF1.46366902915247
aF2.5841669694743508
aF2.945469180115107
aF2.6996619383192186
aF2.6196765576476917
aF2.854594301558263
aF1.9327314305415555
aF1.9395559972300882
aF2.7478939818146535
aF1.574857996565374
aF2.233216277175864
aF1.0330967229556887
aF4.482737663922832
aF1.0723376329640344
aF2.2365371503358698
aF0.38715034111619046
aF1.8253501368756748
aF3.815704727999421
aF1.958334062523799
aF2.1463341626633996
aF3.2296038266141305
aF4.03493105942823
aF3.2220552236243747
aF2.61105718423942
aF1.2760285681035244
aF2.1801984632043037
aF2.7008188308532595
aF2.1245044903602395
aF1.3713182661602203
aF1.4078372734345956
aF2.2402327937815527
aF1.8411768040635657
aF0.7474505193066823
aF1.8912151187234951
aF2.4557874418860934
aF1.6979660254077642
aF1.3841355589096345
aF1.6234992936466528
aF2.4437241668815575
aF2.092517180229553
aF1.1614716406439838
aF2.5883674887204644
aF4.144054555629465
aF2.391894843171821
aF2.0553244710648726
aF0.9057002324965135
aF1.0841085082547746
aF1.0453608110011177
aF1.0062254076146286
aF1.4521272258057867
aF2.5720143384106935
aF0.35581765137374344
aF2.597348058578029
aF2.0148398195219563
aF1.3894718503515804
aF0.6310165164136594
aF0.22393810315275706
aF1.0387584080162346
aF2.5680581775621794
aF1.738484773950272
aF2.5759221316854766
aF1.408170174600016
aF2.632676012522373
asg9
(lp53
I6
aI21
aI13
aI12
aI31
aI14
aI5
aI42
aI19
aI21
aI13
aI8
aI8
aI25
aI38
aI11
aI31
aI16
aI25
aI8
aI8
aI13
aI31
aI13
aI22
aI14
aI17
aI14
aI16
aI39
aI33
aI20
aI27
aI26
aI27
aI14
aI22
aI14
aI15
aI7
aI17
aI17
aI8
aI15
aI9
aI28
aI11
aI16
aI36
aI45
aI17
aI27
aI19
aI18
aI20
aI12
aI13
aI21
aI10
aI19
aI35
aI16
aI19
aI14
aI12
aI10
aI15
aI7
aI14
aI14
aI12
aI26
aI12
aI23
aI14
aI10
aI19
aI14
aI22
aI14
aI10
aI8
aI16
aI30
aI12
aI37
aI26
aI14
aI10
aI13
aI19
aI19
aI14
aI34
aI17
aI36
aI21
aI18
aI14
aI28
aI15
aI12
aI15
aI10
aI45
aI27
aI13
aI36
aI13
aI17
aI9
aI15
aI20
aI28
aI31
aI14
aI13
aI12
aI20
aI10
aI16
aI36
aI13
aI28
aI36
aI14
aI9
aI16
aI16
aI33
aI34
aI13
aI44
aI19
aI16
aI6
aI8
aI12
aI13
aI29
aI12
aI10
aI13
aI33
aI26
aI15
aI15
aI15
aI37
aI15
aI19
aI31
aI15
aI4
aI17
aI12
aI9
aI35
aI21
aI9
aI15
aI9
aI9
aI16
aI21
aI8
aI6
aI14
aI14
aI23
aI40
aI45
aI9
aI5
aI21
aI15
aI38
aI9
aI3
aI16
aI17
aI14
aI9
aI17
aI7
aI19
aI15
aI37
aI10
aI6
aI9
aI14
aI34
aI6
aI31
aI16
aI20
aI17
aI18
aI24
aI14
aI16
aI9
aI15
aI10
aI13
aI9
aI5
aI12
aI12
aI21
aI17
aI14
aI4
aI15
aI14
aI16
aI27
aI25
aI35
aI6
aI13
aI14
aI14
aI10
aI44
aI39
aI14
aI7
aI35
aI18
aI10
aI24
aI20
aI14
aI14
aI16
aI9
aI10
aI9
aI17
aI16
aI17
aI26
aI25
aI4
aI23
aI10
aI20
aI25
asg11
(lp54
I5
aI20
aI12
aI11
aI30
aI13
aI4
aI41
aI18
aI20
aI12
aI7
aI7
aI24
aI37
aI10
aI30
aI15
aI24
aI7
aI7
aI12
aI30
aI12
aI21
aI13
aI16
aI13
aI15
aI38
aI32
aI19
aI26
aI25
aI26
aI13
aI21
aI13
aI14
aI6
aI16
aI16
aI7
aI14
aI8
aI27
aI10
aI15
aI35
aI44
aI16
aI26
aI18
aI17
aI19
aI11
aI12
aI20
aI9
aI18
aI34
aI15
aI18
aI13
aI11
aI9
aI14
aI6
aI13
aI13
aI11
aI25
aI11
aI22
aI13
aI9
aI18
aI13
aI21
aI13
aI9
aI7
aI15
aI29
aI11
aI36
aI25
aI13
aI9
aI12
aI18
aI18
aI13
aI33
aI16
aI35
aI20
aI17
aI13
aI27
aI14
aI11
aI14
aI9
aI44
aI26
aI12
aI35
aI12
aI16
aI8
aI14
aI19
aI27
aI30
aI13
aI12
aI11
aI19
aI9
aI15
aI35
aI12
aI27
aI35
aI13
aI8
aI15
aI15
aI32
aI33
aI12
aI43
aI18
aI15
aI5
aI7
aI11
aI12
aI28
aI11
aI9
aI12
aI32
aI25
aI14
aI14
aI14
aI36
aI14
aI18
aI30
aI14
aI3
aI16
aI11
aI8
aI34
aI20
aI8
aI14
aI8
aI8
aI15
aI20
aI7
aI5
aI13
aI13
aI22
aI39
aI44
aI8
aI4
aI20
aI14
aI37
aI8
aI2
aI15
aI16
aI13
aI8
aI16
aI6
aI18
aI14
aI36
aI9
aI5
aI8
aI13
aI33
aI5
aI30
aI15
aI19
aI16
aI17
aI23
aI13
aI15
aI8
aI14
aI9
aI12
aI8
aI4
aI11
aI11
aI20
aI16
aI13
aI3
aI14
aI13
aI15
aI26
aI24
aI34
aI5
aI12
aI13
aI13
aI9
aI43
aI38
aI13
aI6
aI34
aI17
aI9
aI23
aI19
aI13
aI13
aI15
aI8
aI9
aI8
aI16
aI15
aI16
aI25
aI24
aI3
aI22
aI9
aI19
aI24
assS'BGMR'
p55
(dp56
g3
(lp57
I01
aI01
aI01
aI01
aI01
aI01
aI01
aI00
aI01
aI01
aI00
aI01
aI01
aI01
aI01
aI01
aI01
aI00
aI01
aI00
aI01
aI01
aI01
aI01
aI01
aI01
aI01
aI00
aI00
aI01
aI00
aI01
aI00
aI00
aI00
aI01
aI00
aI01
aI01
aI01
aI01
aI00
aI00
aI01
aI00
aI01
aI01
aI01
aI01
aI01
aI01
aI01
aI01
aI00
aI01
aI01
aI01
aI00
aI01
aI01
aI01
aI01
aI00
aI01
aI01
aI01
aI01
aI01
aI01
aI01
aI01
aI01
aI01
aI01
aI00
aI01
aI01
aI01
aI00
aI01
aI01
aI01
aI01
aI00
aI01
aI01
aI00
aI00
aI01
aI00
aI01
aI01
aI01
aI01
aI01
aI00
aI01
aI00
aI01
aI00
aI01
aI00
aI01
aI00
aI00
aI01
aI00
aI01
aI01
aI01
aI01
aI01
aI01
aI01
aI00
aI01
aI01
aI01
aI01
aI00
aI00
aI01
aI01
aI01
aI01
aI01
aI01
aI00
aI00
aI01
aI00
aI00
aI01
aI01
aI01
aI01
aI01
aI01
aI00
aI01
aI01
aI01
aI01
aI01
aI01
aI01
aI00
aI00
aI01
aI01
aI00
aI00
aI01
aI00
aI00
aI01
aI01
aI01
aI01
aI01
aI01
aI01
aI01
aI01
aI00
aI01
aI01
aI01
aI01
aI01
aI00
aI01
aI01
aI01
aI01
aI01
aI01
aI01
aI01
aI01
aI01
aI01
aI01
aI00
aI01
aI01
aI01
aI01
aI01
aI00
aI01
aI01
aI00
aI01
aI00
aI01
aI01
aI00
aI01
aI01
aI01
aI01
aI01
aI01
aI01
aI00
aI01
aI00
aI01
aI00
aI01
aI01
aI01
aI01
aI01
aI01
aI01
aI01
aI01
aI01
aI01
aI01
aI01
aI01
aI00
aI01
aI01
aI00
aI01
aI00
aI00
aI01
aI01
aI00
aI01
aI00
aI00
aI01
aI01
aI01
aI00
aI01
aI00
aI01
aI01
aI00
aI01
aI01
aI01
aI01
asg5
(lp58
F0.5896968841552734
aF1.3678200244903564
aF1.907155990600586
aF0.9407370090484619
aF1.124964952468872
aF0.6130731105804443
aF1.6488819122314453
aF4.9644999504089355
aF1.478945016860962
aF1.1914448738098145
aF1.9255781173706055
aF0.6143097877502441
aF1.4131460189819336
aF1.336380958557129
aF1.8488969802856445
aF0.8658640384674072
aF0.6549360752105713
aF3.0064499378204346
aF5.3022301197052
aF1.1171610355377197
aF1.5561978816986084
aF1.1010310649871826
aF1.9985871315002441
aF0.9919610023498535
aF1.6023149490356445
aF0.9227988719940186
aF1.724189043045044
aF2.9768078327178955
aF4.230164051055908
aF1.9813530445098877
aF0.85978102684021
aF1.0592260360717773
aF2.5976879596710205
aF2.079289197921753
aF1.4328789710998535
aF1.0161418914794922
aF1.7489399909973145
aF1.0976369380950928
aF0.9439201354980469
aF0.8474330902099609
aF0.8679909706115723
aF2.5415759086608887
aF1.0640161037445068
aF1.4117560386657715
aF0.7286670207977295
aF2.0413849353790283
aF1.2241392135620117
aF2.389228105545044
aF1.6088171005249023
aF2.1212589740753174
aF0.7402939796447754
aF0.588115930557251
aF1.0546398162841797
aF1.6257169246673584
aF0.9658699035644531
aF1.0026731491088867
aF1.18312406539917
aF0.7761261463165283
aF0.9648749828338623
aF0.9642930030822754
aF2.4134750366210938
aF0.8334569931030273
aF1.4938349723815918
aF2.173074960708618
aF0.930077075958252
aF0.9568819999694824
aF1.0438761711120605
aF3.6752800941467285
aF1.0754408836364746
aF1.6790871620178223
aF1.3724241256713867
aF1.1185688972473145
aF2.731506109237671
aF2.1302781105041504
aF0.993354082107544
aF0.62900710105896
aF1.245229959487915
aF1.0058801174163818
aF0.9991638660430908
aF1.7207870483398438
aF0.7208490371704102
aF0.859886884689331
aF1.7681429386138916
aF1.8387470245361328
aF1.0072379112243652
aF1.190850019454956
aF2.043368101119995
aF3.7187860012054443
aF0.6585030555725098
aF1.059689998626709
aF2.129638910293579
aF1.0647859573364258
aF3.77577805519104
aF3.234279155731201
aF3.1675539016723633
aF2.346215009689331
aF2.9297709465026855
aF0.6101889610290527
aF1.1420199871063232
aF1.5482749938964844
aF0.8365139961242676
aF1.2391340732574463
aF0.7493159770965576
aF2.1486451625823975
aF2.005396842956543
aF1.4814188480377197
aF3.094251871109009
aF0.9634029865264893
aF1.2251029014587402
aF0.9419610500335693
aF0.6514248847961426
aF1.235727071762085
aF0.6035940647125244
aF1.5263009071350098
aF1.6172840595245361
aF0.9080419540405273
aF0.703434944152832
aF2.0964441299438477
aF0.7473390102386475
aF1.7474291324615479
aF2.9434168338775635
aF0.990502119064331
aF1.3503141403198242
aF0.9565410614013672
aF1.0112330913543701
aF0.5441470146179199
aF0.8536059856414795
aF2.567586898803711
aF1.941464900970459
aF1.0497958660125732
aF3.7162790298461914
aF2.2776710987091064
aF0.8368449211120605
aF0.7752728462219238
aF1.3148820400238037
aF0.7188248634338379
aF1.3187808990478516
aF0.6849360466003418
aF2.1799888610839844
aF2.4216630458831787
aF0.8815431594848633
aF0.8376119136810303
aF0.7734549045562744
aF1.2387480735778809
aF1.019531011581421
aF0.9126758575439453
aF2.1496729850769043
aF1.4592289924621582
aF0.8837049007415771
aF0.8087220191955566
aF3.2940168380737305
aF2.86836314201355
aF1.0772240161895752
aF0.9290921688079834
aF0.8297710418701172
aF0.694929838180542
aF0.7529311180114746
aF1.3341760635375977
aF0.922508955001831
aF1.2827959060668945
aF1.926663875579834
aF0.8931779861450195
aF1.2726550102233887
aF2.4510538578033447
aF4.347093105316162
aF0.8462779521942139
aF1.33809494972229
aF0.8978271484375
aF1.0107159614562988
aF2.1524059772491455
aF0.8595950603485107
aF0.8333280086517334
aF1.0177788734436035
aF0.6069779396057129
aF0.7834630012512207
aF1.3134779930114746
aF1.5868098735809326
aF0.9192779064178467
aF4.4057629108428955
aF0.8500850200653076
aF4.765613079071045
aF1.3849470615386963
aF1.0974578857421875
aF1.9498579502105713
aF0.4351048469543457
aF1.506505012512207
aF2.6932780742645264
aF1.2939858436584473
aF0.8562989234924316
aF1.3092670440673828
aF1.171483039855957
aF1.7138850688934326
aF2.4943201541900635
aF0.6397061347961426
aF3.506450891494751
aF1.8710448741912842
aF0.9356307983398438
aF4.014748811721802
aF0.6276459693908691
aF3.297227144241333
aF0.6882669925689697
aF1.3047771453857422
aF0.7255182266235352
aF1.0805230140686035
aF0.7687950134277344
aF3.050907850265503
aF0.585421085357666
aF1.1783220767974854
aF1.3037381172180176
aF2.381209135055542
aF0.9018030166625977
aF0.8788228034973145
aF0.7266190052032471
aF0.8361079692840576
aF3.3889570236206055
aF1.0805070400238037
aF0.9503581523895264
aF3.0101230144500732
aF1.6613528728485107
aF2.505911111831665
aF1.2173938751220703
aF0.8066380023956299
aF0.9081311225891113
aF1.1243810653686523
aF2.710853099822998
aF0.9957258701324463
aF1.3962459564208984
aF1.190047025680542
aF1.4336090087890625
aF1.858057975769043
aF1.1434550285339355
aF0.6571409702301025
aF2.8823719024658203
aF1.2529878616333008
aF0.7978959083557129
aF3.2656090259552
aF1.0877740383148193
aF0.9007041454315186
aF1.2810609340667725
aF1.6023619174957275
aF3.7051470279693604
aF0.9315159320831299
aF4.5647828578948975
aF1.7381668090820312
aF2.5677950382232666
aF2.244173049926758
aF2.4577438831329346
aF4.027355909347534
aF1.122830867767334
aF1.9446909427642822
asg7
(lp59
F1.737549581445418
aF0.3560837784540275
aF2.5080621404517456
aF1.2621311714535344
aF2.387679034447985
aF3.124371903138049
aF3.247056794135452
aF1.3751193977877485
aF2.838960049689893
aF1.273152381474352
aF3.0857351674022704
aF1.6780202563959263
aF1.1062395898262152
aF2.869392320175688
aF0.5794357087313862
aF3.412518406562577
aF2.0906826033746846
aF0.5118329526508277
aF2.2314166420538157
aF3.58336199690529
aF3.258333706262565
aF3.0590415804672433
aF0.5678259769183991
aF1.9314750333988606
aF0.20115013347049085
aF2.266471271335023
aF1.781035902876924
aF2.6280140108978784
aF2.4089605858865415
aF0.504591109618916
aF1.9008239847483583
aF0.5517307872530662
aF4.791294451943385
aF0.8097152474105496
aF0.4644934628170582
aF1.039311905408523
aF1.150062806448932
aF1.9355161748348193
aF1.8601396114252207
aF1.1791954271623293
aF2.0495914746330572
aF2.269772670604952
aF3.1892624507697547
aF1.0567575691511286
aF3.0079912909623054
aF0.8609285355788672
aF1.2344867067233405
aF1.9611875214500374
aF0.5742210733719799
aF3.609908174406668
aF1.0726324237562173
aF3.375210325806202
aF2.3072175458407203
aF2.963676917271496
aF1.6102550688713473
aF0.6669376130057714
aF2.2593598733682665
aF2.925484000775171
aF1.3626957847589907
aF1.1506791316962863
aF2.8568734474340847
aF2.4349191861840316
aF3.292186510827947
aF1.468780019397472
aF2.115999855227687
aF1.4526375592364895
aF1.7700980243143898
aF3.8588140825939394
aF2.1115928936856183
aF1.707869401121307
aF0.6959786350619236
aF1.4893513451668985
aF1.9505133679847042
aF2.996349706046545
aF2.889856814606746
aF2.5744742363792867
aF2.0783572891532156
aF1.709436625002997
aF3.238092961782186
aF2.6200570003882007
aF0.5196684602478062
aF1.0986503086387902
aF1.6494245057298846
aF1.0829883916161345
aF1.3455898062015275
aF3.299619954744246
aF0.5518471476123663
aF1.1592606736697808
aF2.332662069254017
aF2.259974084208962
aF1.0047394485004333
aF1.8710390848538598
aF2.2691925777202813
aF2.458659522862603
aF2.340765921250961
aF3.0036251889225047
aF1.7920705206781464
aF2.3234415418706305
aF1.169735245981929
aF1.7404538524504964
aF2.812350438543012
aF0.5096786548164254
aF1.3597766152409212
aF0.20573914628251858
aF0.471234770276349
aF1.1730183462651291
aF0.4474747090588555
aF1.1189110764466852
aF1.2898245796422472
aF1.8050364367965697
aF1.8229325142095898
aF2.913385107992897
aF0.43954993537399906
aF1.3370143028828791
aF3.400902926536617
aF0.5634010820014499
aF2.425427618797479
aF2.049496768166839
aF0.6194292623868832
aF1.885712286802215
aF2.4547805106251914
aF2.0813637698487426
aF1.8762870505420979
aF0.2126127622832385
aF1.8479493067444088
aF3.459633343194745
aF2.638644426274195
aF0.9261436075758362
aF2.0885308765684023
aF1.2937935259039208
aF2.620344755408782
aF1.5864263967894363
aF1.2763601780062606
aF3.1458925971296035
aF3.0569226679359924
aF2.560087482924198
aF2.7735297197067186
aF3.077510117096014
aF0.8854844384850405
aF1.0259276481827961
aF1.489114548862034
aF2.0364772743401964
aF0.3612839515682729
aF1.5008730961755652
aF1.4099957336948796
aF1.7871693885712125
aF3.134875876391996
aF2.568075775062254
aF3.012981346389101
aF1.4838559548884815
aF2.7320716344113913
aF1.1011324340516842
aF1.631694484227743
aF2.6336897551663103
aF3.2427710906055744
aF1.5499807553139495
aF1.755197197895452
aF2.9242601041249685
aF2.17938477028016
aF1.6608605139473116
aF1.1717663208631148
aF2.3709547007462413
aF2.7513848390466307
aF2.96419268857193
aF2.2069500938104443
aF0.27017075784395794
aF2.7445689691908646
aF0.3202890737803001
aF2.2924149646060554
aF2.460928243172263
aF1.658306725152936
aF1.4276297653620336
aF1.5838546236748838
aF0.9369780181759184
aF1.8399904413536994
aF1.6332758333989532
aF3.2979058214241115
aF0.24576614749267642
aF3.3103030100032798
aF1.89927967380349
aF0.6962829702668715
aF1.4529089164668907
aF3.69366221606582
aF1.7070307962152838
aF1.1477107380764227
aF1.3405890823401583
aF0.7922397990068154
aF1.6104560017671286
aF2.556462210914258
aF3.6925631848117386
aF2.6485599759053504
aF2.42947955281157
aF2.1803917297876962
aF2.7333616246727157
aF3.0873376372668364
aF1.9925254195382158
aF1.3041391253092727
aF1.2702164005841736
aF1.0155114548695519
aF1.754758705069547
aF1.009390252958034
aF1.2478126504800464
aF0.38609089475129305
aF1.6995982920512465
aF2.842472194947436
aF1.2645253878138842
aF1.252918617206604
aF3.1310433694604125
aF3.204645551396872
aF3.571867644382164
aF2.5267326559613634
aF1.2741175510292482
aF2.171037851023068
aF2.656377646800009
aF1.5481894211693188
aF0.527038588987613
aF1.1950402612867166
aF2.1891864411231214
aF1.1572624061352317
aF0.8946181417715303
aF2.677484293425249
aF2.438253520234709
aF1.6876147837777775
aF1.2325516676150658
aF1.9773779353426115
aF1.7081668834183314
aF0.7852051861655924
aF1.1152104624557038
aF2.5884806301042347
aF1.4354112101200645
aF2.2533407507308194
aF1.2117337041506826
aF0.8509487891379749
aF1.581514960726797
aF1.2797341210429551
aF2.238352187029482
aF1.3705870835864256
aF2.5288595851344304
aF1.554909133874761
aF3.596678935277048
aF2.187692065484366
aF1.3760714465946857
aF0.9404170313148992
aF0.2252286944956252
aF0.9271498543125664
aF3.5307098337222036
aF1.7469193226208177
aF2.4495937361441356
aF1.3863337119496066
aF3.2501257401090675
asg9
(lp60
I10
aI22
aI28
aI17
aI20
aI11
aI30
aI72
aI22
aI19
aI29
aI10
aI15
aI19
aI29
aI9
aI10
aI27
aI68
aI17
aI20
aI17
aI18
aI16
aI28
aI16
aI20
aI45
aI60
aI32
aI15
aI17
aI43
aI32
aI25
aI14
aI22
aI18
aI12
aI14
aI13
aI37
aI18
aI21
aI12
aI29
aI11
aI34
aI23
aI31
aI11
aI10
aI17
aI29
aI15
aI17
aI17
aI12
aI14
aI15
aI37
aI14
aI19
aI35
aI14
aI16
aI17
aI55
aI17
aI21
aI24
aI17
aI40
aI34
aI15
aI10
aI21
aI17
aI17
aI20
aI12
aI13
aI29
aI31
aI16
aI20
aI32
aI60
aI12
aI10
aI34
aI16
aI40
aI34
aI37
aI38
aI47
aI10
aI13
aI27
aI14
aI14
aI12
aI36
aI32
aI24
aI44
aI15
aI19
aI14
aI11
aI13
aI10
aI25
aI28
aI14
aI11
aI21
aI13
aI27
aI43
aI16
aI20
aI17
aI17
aI10
aI14
aI38
aI32
aI16
aI51
aI39
aI14
aI13
aI21
aI11
aI21
aI13
aI30
aI40
aI13
aI14
aI13
aI20
aI17
aI14
aI36
aI23
aI13
aI10
aI63
aI31
aI16
aI13
aI12
aI11
aI14
aI16
aI14
aI13
aI28
aI14
aI19
aI34
aI54
aI13
aI22
aI15
aI16
aI34
aI13
aI13
aI18
aI10
aI13
aI23
aI23
aI15
aI70
aI13
aI75
aI22
aI16
aI30
aI6
aI23
aI43
aI21
aI15
aI21
aI20
aI27
aI40
aI9
aI56
aI28
aI15
aI62
aI10
aI45
aI10
aI18
aI12
aI17
aI11
aI49
aI10
aI21
aI20
aI35
aI15
aI13
aI9
aI13
aI51
aI16
aI17
aI35
aI26
aI35
aI19
aI13
aI15
aI17
aI46
aI15
aI23
aI18
aI23
aI29
aI18
aI9
aI30
aI20
aI13
aI48
aI16
aI15
aI14
aI26
aI49
aI15
aI51
aI22
aI40
aI34
aI41
aI62
aI17
aI33
asg11
(lp61
I9
aI21
aI27
aI16
aI19
aI10
aI29
aI71
aI21
aI18
aI28
aI9
aI14
aI18
aI28
aI8
aI9
aI26
aI67
aI16
aI19
aI16
aI17
aI15
aI27
aI15
aI19
aI44
aI59
aI31
aI14
aI16
aI42
aI31
aI24
aI13
aI21
aI17
aI11
aI13
aI12
aI36
aI17
aI20
aI11
aI28
aI10
aI33
aI22
aI30
aI10
aI9
aI16
aI28
aI14
aI16
aI16
aI11
aI13
aI14
aI36
aI13
aI18
aI34
aI13
aI15
aI16
aI54
aI16
aI20
aI23
aI16
aI39
aI33
aI14
aI9
aI20
aI16
aI16
aI19
aI11
aI12
aI28
aI30
aI15
aI19
aI31
aI59
aI11
aI9
aI33
aI15
aI39
aI33
aI36
aI37
aI46
aI9
aI12
aI26
aI13
aI13
aI11
aI35
aI31
aI23
aI43
aI14
aI18
aI13
aI10
aI12
aI9
aI24
aI27
aI13
aI10
aI20
aI12
aI26
aI42
aI15
aI19
aI16
aI16
aI9
aI13
aI37
aI31
aI15
aI50
aI38
aI13
aI12
aI20
aI10
aI20
aI12
aI29
aI39
aI12
aI13
aI12
aI19
aI16
aI13
aI35
aI22
aI12
aI9
aI62
aI30
aI15
aI12
aI11
aI10
aI13
aI15
aI13
aI12
aI27
aI13
aI18
aI33
aI53
aI12
aI21
aI14
aI15
aI33
aI12
aI12
aI17
aI9
aI12
aI22
aI22
aI14
aI69
aI12
aI74
aI21
aI15
aI29
aI5
aI22
aI42
aI20
aI14
aI20
aI19
aI26
aI39
aI8
aI55
aI27
aI14
aI61
aI9
aI44
aI9
aI17
aI11
aI16
aI10
aI48
aI9
aI20
aI19
aI34
aI14
aI12
aI8
aI12
aI50
aI15
aI16
aI34
aI25
aI34
aI18
aI12
aI14
aI16
aI45
aI14
aI22
aI17
aI22
aI28
aI17
aI8
aI29
aI19
aI12
aI47
aI15
aI14
aI13
aI25
aI48
aI14
aI50
aI21
aI39
aI33
aI40
aI61
aI16
aI32
assS'BGMR_PCA'
p62
(dp63
g3
(lp64
I01
aI01
aI01
aI01
aI00
aI01
aI01
aI00
aI01
aI01
aI01
aI01
aI01
aI01
aI01
aI01
aI01
aI00
aI00
aI01
aI01
aI01
aI01
aI01
aI00
aI00
aI01
aI01
aI00
aI01
aI00
aI01
aI00
aI01
aI00
aI01
aI01
aI01
aI01
aI01
aI01
aI00
aI00
aI01
aI01
aI01
aI01
aI01
aI01
aI00
aI01
aI01
aI01
aI00
aI01
aI01
aI00
aI01
aI01
aI01
aI01
aI01
aI01
aI01
aI01
aI00
aI01
aI01
aI01
aI01
aI01
aI01
aI01
aI01
aI01
aI01
aI01
aI01
aI00
aI01
aI01
aI01
aI01
aI00
aI01
aI01
aI00
aI00
aI01
aI00
aI01
aI01
aI01
aI01
aI00
aI00
aI00
aI00
aI01
aI00
aI01
aI00
aI01
aI00
aI00
aI01
aI01
aI01
aI01
aI01
aI01
aI01
aI01
aI01
aI00
aI01
aI01
aI01
aI01
aI01
aI01
aI01
aI01
aI01
aI01
aI01
aI01
aI00
aI00
aI01
aI00
aI01
aI01
aI01
aI01
aI01
aI01
aI01
aI01
aI01
aI01
aI01
aI01
aI01
aI01
aI01
aI01
aI00
aI01
aI01
aI00
aI00
aI01
aI00
aI00
aI01
aI01
aI01
aI01
aI01
aI00
aI01
aI01
aI01
aI01
aI01
aI01
aI00
aI00
aI00
aI00
aI01
aI01
aI01
aI01
aI01
aI01
aI01
aI01
aI01
aI01
aI01
aI01
aI01
aI01
aI01
aI00
aI01
aI01
aI01
aI01
aI01
aI00
aI01
aI00
aI01
aI01
aI01
aI01
aI01
aI01
aI01
aI01
aI01
aI01
aI01
aI01
aI01
aI01
aI00
aI01
aI01
aI01
aI01
aI01
aI01
aI01
aI01
aI01
aI01
aI01
aI01
aI01
aI01
aI01
aI01
aI01
aI00
aI01
aI00
aI00
aI01
aI00
aI00
aI01
aI01
aI00
aI01
aI01
aI01
aI01
aI01
aI00
aI01
aI00
aI00
aI01
aI00
aI01
aI01
asg5
(lp65
F0.6827387809753418
aF1.5979928970336914
aF1.6841018199920654
aF1.1504490375518799
aF1.8567521572113037
aF0.7567310333251953
aF1.25569486618042
aF2.0874900817871094
aF1.2683079242706299
aF1.0045170783996582
aF1.0422189235687256
aF1.3441050052642822
aF0.9987449645996094
aF1.8413221836090088
aF2.1241610050201416
aF0.47408294677734375
aF0.7198200225830078
aF1.610238790512085
aF3.309860944747925
aF0.8058030605316162
aF1.457453966140747
aF0.7963519096374512
aF1.3935580253601074
aF0.8206729888916016
aF2.576422929763794
aF1.1381351947784424
aF1.0114028453826904
aF1.2723329067230225
aF2.597074031829834
aF1.6807210445404053
aF2.491266965866089
aF1.0552561283111572
aF2.693415880203247
aF1.608522891998291
aF1.3090028762817383
aF1.4099311828613281
aF5.562090158462524
aF1.2923200130462646
aF1.1123740673065186
aF0.6467130184173584
aF1.2058618068695068
aF1.1459388732910156
aF1.1767120361328125
aF1.5558300018310547
aF1.6790039539337158
aF2.179641008377075
aF1.5359208583831787
aF1.4821650981903076
aF1.4253699779510498
aF2.160254955291748
aF0.7912099361419678
aF0.9550960063934326
aF0.8864679336547852
aF2.146635055541992
aF1.042809009552002
aF1.5265789031982422
aF2.391216993331909
aF0.9582619667053223
aF0.7678530216217041
aF1.0486187934875488
aF2.5745229721069336
aF0.9378418922424316
aF2.6166489124298096
aF2.210334062576294
aF0.9598701000213623
aF1.0352530479431152
aF1.029158115386963
aF0.8756070137023926
aF1.0142500400543213
aF1.3547329902648926
aF0.8587079048156738
aF1.051854133605957
aF0.6963150501251221
aF1.076275110244751
aF0.9562201499938965
aF1.265052080154419
aF1.4359018802642822
aF1.2153429985046387
aF1.5864899158477783
aF0.9615790843963623
aF1.126103162765503
aF0.8204379081726074
aF0.9931108951568604
aF3.1197988986968994
aF1.13981294631958
aF1.2173359394073486
aF1.5467309951782227
aF8.344586849212646
aF1.717221975326538
aF1.1008930206298828
aF1.7502460479736328
aF1.6123979091644287
aF3.820373058319092
aF1.8613388538360596
aF1.7528209686279297
aF3.3327388763427734
aF1.6554019451141357
aF1.9225900173187256
aF1.2166869640350342
aF1.4457530975341797
aF1.9436960220336914
aF1.4715650081634521
aF0.6646459102630615
aF1.864253044128418
aF1.872506856918335
aF2.3068220615386963
aF5.402526140213013
aF0.9716489315032959
aF0.6283040046691895
aF1.027116060256958
aF0.5450320243835449
aF1.9800629615783691
aF0.8367180824279785
aF1.518907070159912
aF1.2361738681793213
aF1.075382947921753
aF1.4855709075927734
aF2.4295380115509033
aF0.7798271179199219
aF0.9532251358032227
aF1.1342201232910156
aF1.3142969608306885
aF1.08644700050354
aF1.3336308002471924
aF0.9913218021392822
aF0.9545700550079346
aF1.4794349670410156
aF1.4133341312408447
aF2.3258981704711914
aF0.957352876663208
aF5.221434831619263
aF0.870398998260498
aF1.6575109958648682
aF0.9293909072875977
aF0.8691179752349854
aF1.0499489307403564
aF0.939971923828125
aF0.6636879444122314
aF0.857280969619751
aF2.6769020557403564
aF1.0812010765075684
aF0.6972129344940186
aF1.4181649684906006
aF1.0590870380401611
aF1.2955029010772705
aF0.981104850769043
aF1.2936229705810547
aF1.204517126083374
aF2.2485499382019043
aF0.6732721328735352
aF4.295397043228149
aF3.0917160511016846
aF1.2098450660705566
aF0.6542489528656006
aF0.9971978664398193
aF0.702584981918335
aF0.8702731132507324
aF1.0944459438323975
aF1.137800931930542
aF0.850273847579956
aF1.0112321376800537
aF0.9755730628967285
aF1.352691888809204
aF1.088258981704712
aF1.17952299118042
aF1.278749942779541
aF1.079768180847168
aF2.3907010555267334
aF0.9467909336090088
aF1.1422619819641113
aF3.778517007827759
aF1.0771551132202148
aF1.104538917541504
aF0.7316439151763916
aF0.6994810104370117
aF1.3850338459014893
aF2.020476818084717
aF0.5990569591522217
aF0.7263219356536865
aF2.003110885620117
aF3.4192168712615967
aF1.3505561351776123
aF1.351161003112793
aF1.0562801361083984
aF0.6404659748077393
aF0.8660488128662109
aF1.0353670120239258
aF0.9684751033782959
aF0.8273270130157471
aF0.6417498588562012
aF0.9989089965820312
aF1.039212942123413
aF3.9248461723327637
aF1.7184779644012451
aF2.8388960361480713
aF1.0580260753631592
aF1.8695049285888672
aF1.3050038814544678
aF0.7796549797058105
aF3.319153070449829
aF1.2338550090789795
aF0.7279438972473145
aF0.9414360523223877
aF1.0662951469421387
aF0.8092451095581055
aF2.9518730640411377
aF0.6771631240844727
aF0.5597331523895264
aF0.9935040473937988
aF2.769871950149536
aF1.9153311252593994
aF0.8647310733795166
aF1.2740778923034668
aF2.2691431045532227
aF2.591073989868164
aF1.1162140369415283
aF1.6654729843139648
aF1.2558670043945312
aF1.697361946105957
aF3.255035161972046
aF1.1101620197296143
aF0.9274780750274658
aF0.855226993560791
aF1.0888087749481201
aF2.463813066482544
aF1.3139700889587402
aF1.5301129817962646
aF1.310122013092041
aF1.0557060241699219
aF1.7833287715911865
aF3.044869899749756
aF0.6797089576721191
aF2.3730270862579346
aF1.5376121997833252
aF0.9573040008544922
aF4.09581995010376
aF0.898292064666748
aF0.8539450168609619
aF0.606266975402832
aF0.6576509475708008
aF1.1435282230377197
aF0.7590579986572266
aF2.702820062637329
aF1.6707258224487305
aF2.556408166885376
aF4.984464883804321
aF2.4666500091552734
aF3.9046590328216553
aF1.2558939456939697
aF2.6662728786468506
asg7
(lp66
F1.7383756898480964
aF0.3107470576548865
aF2.4639417886039543
aF1.2702702447211762
aF1.4590587032408715
aF3.1471690002338604
aF3.242190168115449
aF1.2800637132067019
aF2.985324049483016
aF1.303648458089322
aF2.9338211889429164
aF2.478746917236454
aF0.9979243243592614
aF2.8697738720354655
aF0.7673882880232678
aF3.4125589417472497
aF2.09057324550651
aF0.6571557104092681
aF3.056205014182299
aF3.4721014094190457
aF3.3716179412250464
aF2.130359538312302
aF0.5438311322195032
aF2.0635010844377626
aF0.22688451303765533
aF1.4915790747309303
aF1.76646278333779
aF2.43298900362714
aF2.8619716708216334
aF0.5293475837864315
aF1.9372094254657022
aF0.5663389954789757
aF4.272433046969972
aF0.894881390029325
aF0.43410049654365895
aF1.019528230340146
aF1.0448881023923766
aF1.9608447056189637
aF2.7734983319400968
aF1.1544064097663556
aF2.051269848868551
aF2.353579880113773
aF3.189814217860241
aF0.8686295855219436
aF2.8201997389806377
aF0.9532371724579841
aF1.2229797949300267
aF1.9536252923798043
aF0.525212325371822
aF3.7199340376944616
aF1.0730646816637879
aF2.4374554875986085
aF2.3099990025434796
aF2.960993148397401
aF1.6090836248074334
aF0.8908722042200254
aF2.4827648194802983
aF2.849876310393207
aF1.837604658966025
aF1.132225283874478
aF2.674751263498654
aF1.4557744871610303
aF3.4255615613230517
aF2.45785728400482
aF2.1176104476863253
aF1.4993879018794154
aF1.7592237189915547
aF2.6679653620919064
aF2.111616466590374
aF1.6441777343120525
aF1.085339944279004
aF1.4885919402810823
aF1.9629237270788493
aF2.8558363668973854
aF2.8455217067339507
aF2.57234669059277
aF2.082130728928294
aF1.6301152621425428
aF4.359533705742281
aF2.668898302232142
aF1.3149673458915663
aF1.0984599023164092
aF1.611573061146488
aF2.5251971190846647
aF1.3390609818285422
aF3.0517733583047018
aF0.49057566157338695
aF0.907321916262053
aF2.346030260044759
aF2.239016900598466
aF1.0111981273009405
aF1.8109878323235702
aF2.2652488302699716
aF2.5548152672615516
aF2.3205055328540385
aF2.9762295194844297
aF1.658235994951477
aF2.367933973668749
aF2.1832477905040184
aF1.6818791861202633
aF1.7436959245232224
aF0.5186741784105473
aF1.360848173671033
aF0.21138866885775354
aF0.4742457259124062
aF1.175114691592801
aF0.4956336153741924
aF1.067066823435278
aF1.325212095211697
aF1.7929379840531996
aF1.824468720281443
aF2.9849906990805732
aF0.462421650720149
aF1.3694112037952442
aF2.583674510065712
aF0.563356290318359
aF2.465812065829098
aF2.0049789354822902
aF1.3791023013912134
aF2.0376758228545926
aF2.6944770234317645
aF2.2201554539707278
aF1.8823604301248966
aF0.206448524728133
aF1.8779844229729756
aF3.208123343640897
aF2.646032335108828
aF0.837077156692193
aF2.0142106078386313
aF1.2901576288142642
aF3.548966758870279
aF2.200374621931503
aF1.2738416113493296
aF3.1340371645973186
aF2.246455707067656
aF2.5647301924859196
aF2.755617216912986
aF3.0752870264395016
aF1.6018158579284947
aF1.938204214386501
aF1.496784580406968
aF1.8818341933470866
aF0.35088166255864117
aF1.4913203585967578
aF1.433985228016607
aF1.7833132485591743
aF2.9990361857380154
aF2.57039291311442
aF3.006181169103918
aF1.4879618271239048
aF2.7320662277825587
aF1.106615770447456
aF1.5954708159552062
aF2.6375615090492266
aF2.927689548977489
aF1.510291731594215
aF1.7553578692022085
aF2.886154685595472
aF2.1744176175124355
aF1.6675545538287804
aF1.0834984028283723
aF2.376990259216318
aF1.772306177984482
aF2.174896714711103
aF2.267227660814205
aF0.3502168749786509
aF2.7444116892554025
aF1.579451515650039
aF1.4133804181250154
aF3.2865810201353214
aF0.7462889378032755
aF1.4347756045579363
aF2.487075585326441
aF0.9282336662641913
aF1.837691949524198
aF1.706490976865341
aF3.3183124272689515
aF0.2604211041146538
aF2.540464186081867
aF1.8899454084297318
aF0.69246675246594
aF1.4616732137059816
aF1.7796127535451307
aF1.1574932044975201
aF1.1476506959969766
aF1.1629337467487106
aF0.7546452861435969
aF1.4951152193552246
aF2.560136021662019
aF2.943332236436756
aF2.593999089072185
aF2.528923013192408
aF2.151560428690802
aF2.9503556670534254
aF4.669554129436532
aF2.192309321687521
aF1.3738875091632976
aF1.3274416126727713
aF1.0268486829937011
aF1.7597442352437016
aF1.0212186207861857
aF1.249080697779665
aF0.386328985614634
aF1.694016236542257
aF2.848807100536174
aF3.0956544454569697
aF1.2527077246087592
aF3.1503692915040062
aF2.173273355651006
aF3.4928588440635497
aF2.518954063809641
aF1.2685900509270702
aF2.172103387586012
aF2.651472350032923
aF1.494336660824671
aF0.5268927117866264
aF0.35119852557360937
aF2.2500729126666767
aF1.0977916493512803
aF0.8249064002887987
aF2.783974722641538
aF2.44082764607281
aF1.7229404858199637
aF1.5248919777347236
aF1.6866624792595235
aF1.707410204523115
aF0.38468133315390596
aF1.0957708121296765
aF1.2222687965405854
aF1.4327207204125842
aF2.2502859048288006
aF1.211994399354062
aF1.2215018381203255
aF1.542813797237283
aF1.27161379881566
aF2.097502393250588
aF1.4106498661870743
aF2.528831485655404
aF1.5141172955986986
aF2.5932211000521193
aF1.6851908683885315
aF1.3901211519880032
aF0.8543538298517707
aF0.2242212670848259
aF0.9300568507659318
aF3.529619873074861
aF1.7381592598489306
aF2.6436717207611875
aF1.4534480452281877
aF3.265087785788206
asg9
(lp67
I11
aI24
aI17
aI20
aI31
aI13
aI12
aI30
aI18
aI15
aI15
aI17
aI15
aI25
aI32
aI7
aI10
aI23
aI52
aI12
aI19
aI12
aI22
aI12
aI25
aI19
aI16
aI19
aI38
aI26
aI41
aI16
aI45
aI23
aI20
aI17
aI70
aI19
aI18
aI10
aI17
aI16
aI20
aI22
aI22
aI31
aI14
aI22
aI20
aI31
aI11
aI15
aI13
aI37
aI15
aI25
aI35
aI14
aI11
aI15
aI37
aI15
aI37
aI33
aI14
aI16
aI16
aI11
aI15
aI12
aI14
aI15
aI10
aI16
aI14
aI18
aI16
aI19
aI27
aI16
aI18
aI12
aI15
aI49
aI17
aI19
aI23
aI109
aI16
aI10
aI28
aI15
aI41
aI30
aI25
aI38
aI26
aI30
aI17
aI24
aI16
aI15
aI10
aI30
aI30
aI35
aI53
aI14
aI10
aI15
aI8
aI19
aI13
aI23
aI20
aI15
aI23
aI35
aI13
aI14
aI16
aI21
aI15
aI23
aI16
aI15
aI21
aI20
aI37
aI14
aI71
aI14
aI26
aI14
aI14
aI15
aI16
aI11
aI14
aI42
aI16
aI10
aI13
aI16
aI21
aI14
aI19
aI18
aI34
aI10
aI80
aI46
aI17
aI8
aI14
aI10
aI15
aI16
aI16
aI15
aI13
aI15
aI16
aI16
aI15
aI12
aI16
aI23
aI14
aI19
aI52
aI16
aI19
aI11
aI11
aI24
aI28
aI9
aI12
aI21
aI53
aI20
aI23
aI16
aI10
aI13
aI15
aI14
aI14
aI9
aI16
aI14
aI59
aI25
aI44
aI17
aI29
aI19
aI12
aI44
aI18
aI11
aI14
aI16
aI13
aI49
aI9
aI9
aI15
aI41
aI29
aI11
aI18
aI18
aI41
aI16
aI26
aI19
aI26
aI47
aI13
aI14
aI14
aI16
aI41
aI19
aI23
aI19
aI17
aI27
aI34
aI10
aI32
aI22
aI15
aI62
aI13
aI13
aI10
aI9
aI16
aI12
aI42
aI28
aI39
aI70
aI28
aI42
aI19
aI28
asg11
(lp68
I10
aI23
aI16
aI19
aI30
aI12
aI11
aI29
aI17
aI14
aI14
aI16
aI14
aI24
aI31
aI6
aI9
aI22
aI51
aI11
aI18
aI11
aI21
aI11
aI24
aI18
aI15
aI18
aI37
aI25
aI40
aI15
aI44
aI22
aI19
aI16
aI69
aI18
aI17
aI9
aI16
aI15
aI19
aI21
aI21
aI30
aI13
aI21
aI19
aI30
aI10
aI14
aI12
aI36
aI14
aI24
aI34
aI13
aI10
aI14
aI36
aI14
aI36
aI32
aI13
aI15
aI15
aI10
aI14
aI11
aI13
aI14
aI9
aI15
aI13
aI17
aI15
aI18
aI26
aI15
aI17
aI11
aI14
aI48
aI16
aI18
aI22
aI108
aI15
aI9
aI27
aI14
aI40
aI29
aI24
aI37
aI25
aI29
aI16
aI23
aI15
aI14
aI9
aI29
aI29
aI34
aI52
aI13
aI9
aI14
aI7
aI18
aI12
aI22
aI19
aI14
aI22
aI34
aI12
aI13
aI15
aI20
aI14
aI22
aI15
aI14
aI20
aI19
aI36
aI13
aI70
aI13
aI25
aI13
aI13
aI14
aI15
aI10
aI13
aI41
aI15
aI9
aI12
aI15
aI20
aI13
aI18
aI17
aI33
aI9
aI79
aI45
aI16
aI7
aI13
aI9
aI14
aI15
aI15
aI14
aI12
aI14
aI15
aI15
aI14
aI11
aI15
aI22
aI13
aI18
aI51
aI15
aI18
aI10
aI10
aI23
aI27
aI8
aI11
aI20
aI52
aI19
aI22
aI15
aI9
aI12
aI14
aI13
aI13
aI8
aI15
aI13
aI58
aI24
aI43
aI16
aI28
aI18
aI11
aI43
aI17
aI10
aI13
aI15
aI12
aI48
aI8
aI8
aI14
aI40
aI28
aI10
aI17
aI17
aI40
aI15
aI25
aI18
aI25
aI46
aI12
aI13
aI13
aI15
aI40
aI18
aI22
aI18
aI16
aI26
aI33
aI9
aI31
aI21
aI14
aI61
aI12
aI12
aI9
aI8
aI15
aI11
aI41
aI27
aI38
aI69
aI27
aI41
aI18
aI27
ass.