(dp0
S'BGMR    '
p1
(dp2
S'successes'
p3
(lp4
I01
aI01
aI01
aI01
aI01
aI01
aI01
aI01
aI00
aI01
aI00
aI01
aI01
aI01
aI01
aI01
aI01
aI01
aI01
aI01
aI01
aI01
aI01
aI01
aI01
aI01
aI01
aI01
aI01
aI00
aI01
aI01
aI00
aI01
aI01
aI01
aI01
aI00
aI01
aI01
aI01
aI01
aI01
aI01
aI01
aI01
aI01
aI01
aI01
aI01
aI01
aI01
aI01
aI01
aI01
aI01
aI01
aI01
aI01
aI01
aI01
aI01
aI01
aI01
aI01
aI01
aI01
aI01
aI01
aI01
aI01
aI01
aI01
aI01
aI01
aI01
aI01
aI01
aI01
aI01
aI01
aI01
aI00
aI01
aI01
aI01
aI01
aI01
aI01
aI01
aI01
aI01
aI01
aI01
aI01
aI01
aI01
aI01
aI01
aI01
asS'comp_times'
p5
(lp6
F0.38747406005859375
aF0.1882460117340088
aF0.272601842880249
aF0.15323710441589355
aF0.38897204399108887
aF0.2614309787750244
aF0.21371912956237793
aF0.2810781002044678
aF0.33292698860168457
aF0.35068798065185547
aF0.21921896934509277
aF0.5454590320587158
aF0.2222888469696045
aF0.2803609371185303
aF0.3554801940917969
aF0.3391411304473877
aF0.6014881134033203
aF0.17082595825195312
aF0.550818920135498
aF0.6808629035949707
aF0.7709472179412842
aF0.4932568073272705
aF0.3071410655975342
aF0.19363999366760254
aF0.39144206047058105
aF0.1820509433746338
aF0.181657075881958
aF0.27799510955810547
aF0.22343111038208008
aF0.38242506980895996
aF0.1585090160369873
aF0.34745192527770996
aF0.34200596809387207
aF0.6151511669158936
aF0.3296670913696289
aF0.25650787353515625
aF0.35555481910705566
aF0.16553115844726562
aF0.2184751033782959
aF0.6390278339385986
aF0.21312499046325684
aF0.18768811225891113
aF0.29044008255004883
aF0.472426176071167
aF0.950286865234375
aF0.3474898338317871
aF0.1981639862060547
aF0.16833996772766113
aF0.11553311347961426
aF0.18238592147827148
aF0.4030470848083496
aF0.40627288818359375
aF0.22043490409851074
aF0.2672750949859619
aF0.18442392349243164
aF0.4874148368835449
aF0.17116189002990723
aF0.18194317817687988
aF0.18415212631225586
aF0.30988216400146484
aF0.1859421730041504
aF0.3380699157714844
aF0.41692113876342773
aF0.2257378101348877
aF0.0903940200805664
aF0.2977468967437744
aF0.23879599571228027
aF0.18326497077941895
aF0.3794059753417969
aF0.3373148441314697
aF0.18671798706054688
aF0.19583392143249512
aF0.4116780757904053
aF0.19389009475708008
aF0.6019179821014404
aF0.21532201766967773
aF0.27625107765197754
aF0.1332850456237793
aF0.21164917945861816
aF0.34722900390625
aF0.17832684516906738
aF0.5372488498687744
aF0.204179048538208
aF0.24510908126831055
aF0.21136689186096191
aF0.2287759780883789
aF0.33329105377197266
aF0.5206589698791504
aF0.33150696754455566
aF0.26065707206726074
aF0.2476959228515625
aF0.3286478519439697
aF0.38107895851135254
aF0.19572210311889648
aF0.247344970703125
aF0.23835301399230957
aF0.254971981048584
aF0.19727611541748047
aF0.2295060157775879
aF0.16165399551391602
asS'costs'
p7
(lp8
F1.1833291107467245
aF2.0298078362770933
aF0.9652008149664113
aF1.7658245211126544
aF1.4483532527069234
aF1.823953407354887
aF2.2742217625725836
aF2.430821774614716
aF2.119244255125175
aF0.8609573611470945
aF1.5955952615784819
aF1.0443624963126823
aF1.2067618563747164
aF0.993592530410945
aF1.0647794702440074
aF1.3832858158778787
aF1.8430347732882406
aF1.3145632193912404
aF0.8528784098880402
aF1.1999017792629032
aF0.821241672835397
aF1.1763038013341656
aF1.018024584354086
aF2.21292686816962
aF1.174758078522808
aF1.516971558669606
aF0.5879061785340255
aF1.1182839484863447
aF0.9974475879835143
aF1.70618912493409
aF1.2427422433598858
aF0.8492856181906505
aF2.6278725820148217
aF1.955186790283613
aF0.9889008464040876
aF1.4683971303834855
aF1.0374697136923425
aF0.9014739268945494
aF1.5268405710553785
aF1.3882779554458047
aF1.0986406527395982
aF1.8619423221751248
aF2.339350268865367
aF0.9489919235964592
aF1.649512462307053
aF1.1259929345860513
aF1.8709023993662026
aF1.291979929384536
aF1.2039459732515225
aF1.3592902281835895
aF0.9790953691129876
aF1.1130817413597094
aF0.9367685251498481
aF1.4727104186053435
aF0.948838892173318
aF0.9550291308101446
aF1.0690865482226992
aF0.9839277062533055
aF1.7888879217352607
aF1.4601540236223003
aF1.323048082071065
aF1.1675739635029636
aF1.0983038975596602
aF1.4097309810392582
aF1.1705715580745633
aF1.331061896946721
aF1.225471916128715
aF1.4777242770726198
aF1.2392123469028329
aF0.8997971978296923
aF0.5545185935532668
aF0.9071852775937458
aF1.675252180553698
aF1.0057260648462742
aF0.7859573523936648
aF1.6316632257404502
aF0.6258191786596307
aF1.7763301185538738
aF1.4846016760190897
aF1.1625719034670778
aF1.3161596832425146
aF1.9978649894769744
aF1.6177699121372988
aF1.6624549319849373
aF1.4327187163262127
aF1.2057707880580366
aF1.3920493304048738
aF1.2159646019104666
aF0.930988613466965
aF1.1799569592871317
aF1.5172921778598043
aF1.7792837103403587
aF1.6777866405268704
aF0.8449591306665446
aF1.2454803892752275
aF1.8528680142876548
aF1.694486368467637
aF1.7649189038368633
aF2.043866307092739
aF1.3690703649546663
asS'func_evals'
p9
(lp10
I13
aI8
aI12
aI6
aI18
aI13
aI9
aI11
aI11
aI15
aI8
aI20
aI10
aI9
aI8
aI8
aI16
aI7
aI16
aI15
aI17
aI22
aI13
aI9
aI17
aI8
aI8
aI12
aI10
aI16
aI7
aI13
aI10
aI16
aI13
aI10
aI15
aI8
aI9
aI24
aI8
aI7
aI12
aI20
aI40
aI13
aI11
aI6
aI5
aI8
aI17
aI11
aI10
aI10
aI7
aI13
aI7
aI5
aI8
aI13
aI8
aI13
aI16
aI9
aI4
aI11
aI11
aI7
aI18
aI16
aI8
aI9
aI18
aI7
aI24
aI9
aI12
aI6
aI9
aI14
aI8
aI20
aI9
aI9
aI10
aI11
aI13
aI22
aI16
aI12
aI10
aI13
aI15
aI9
aI10
aI10
aI12
aI10
aI11
aI7
asS'qp_solves'
p11
(lp12
I12
aI7
aI11
aI5
aI17
aI12
aI8
aI10
aI10
aI14
aI7
aI19
aI9
aI8
aI7
aI7
aI15
aI6
aI15
aI14
aI16
aI21
aI12
aI8
aI16
aI7
aI7
aI11
aI9
aI15
aI6
aI12
aI9
aI15
aI12
aI9
aI14
aI7
aI8
aI23
aI7
aI6
aI11
aI19
aI39
aI12
aI10
aI5
aI4
aI7
aI16
aI10
aI9
aI9
aI6
aI12
aI6
aI4
aI7
aI12
aI7
aI12
aI15
aI8
aI3
aI10
aI10
aI6
aI17
aI15
aI7
aI8
aI17
aI6
aI23
aI8
aI11
aI5
aI8
aI13
aI7
aI19
aI8
aI8
aI9
aI10
aI12
aI21
aI15
aI11
aI9
aI12
aI14
aI8
aI9
aI9
aI11
aI9
aI10
aI6
assS'GPY    '
p13
(dp14
g3
(lp15
I00
aI00
aI00
aI00
aI00
aI00
aI00
aI00
aI00
aI00
aI00
aI00
aI00
aI00
aI00
aI00
aI00
aI00
aI00
aI00
aI00
aI00
aI00
aI00
aI00
aI00
aI00
aI00
aI00
aI00
aI00
aI00
aI00
aI00
aI00
aI00
aI00
aI00
aI00
aI00
aI00
aI00
aI00
aI00
aI00
aI00
aI00
aI00
aI00
aI00
aI00
aI00
aI00
aI00
aI00
aI00
aI00
aI00
aI00
aI00
aI00
aI00
aI00
aI00
aI00
aI00
aI00
aI00
aI00
aI00
aI00
aI00
aI00
aI00
aI00
aI00
aI00
aI00
aI00
aI00
aI00
aI00
aI00
aI00
aI00
aI00
aI00
aI00
aI00
aI00
aI00
aI00
aI00
aI00
aI00
aI00
aI00
aI00
aI00
aI00
asg5
(lp16
F2.3856780529022217
aF1.392366886138916
aF1.2282078266143799
aF0.7794280052185059
aF1.675771951675415
aF1.047109842300415
aF1.0763790607452393
aF0.9359288215637207
aF1.8757109642028809
aF1.615347146987915
aF1.5310590267181396
aF1.3967490196228027
aF1.3219149112701416
aF1.513157844543457
aF1.3062841892242432
aF1.8851327896118164
aF3.0478298664093018
aF0.8212020397186279
aF1.3480451107025146
aF1.5185589790344238
aF1.256998062133789
aF1.096755027770996
aF1.5348761081695557
aF0.9116349220275879
aF1.6239659786224365
aF1.0957798957824707
aF1.0788371562957764
aF1.6799850463867188
aF0.8881349563598633
aF1.3436098098754883
aF1.0860340595245361
aF1.3333861827850342
aF1.810664176940918
aF2.1099209785461426
aF0.9585959911346436
aF1.5872588157653809
aF1.3427729606628418
aF1.0524439811706543
aF2.1001410484313965
aF1.5359809398651123
aF1.4757938385009766
aF0.9333992004394531
aF0.5919640064239502
aF0.9505689144134521
aF1.350423812866211
aF1.51422119140625
aF1.3362500667572021
aF1.2744550704956055
aF1.1310510635375977
aF1.6728999614715576
aF0.8855891227722168
aF0.8940110206604004
aF1.0505690574645996
aF1.432352066040039
aF0.697411060333252
aF1.590029001235962
aF2.1819448471069336
aF1.1237578392028809
aF3.3700928688049316
aF0.6990931034088135
aF1.4753081798553467
aF0.9240419864654541
aF1.0818440914154053
aF2.3854169845581055
aF1.313723087310791
aF0.9242641925811768
aF1.4924399852752686
aF0.9987599849700928
aF1.0379879474639893
aF0.7424628734588623
aF1.4188108444213867
aF1.2743442058563232
aF0.7248959541320801
aF1.5444509983062744
aF0.9532151222229004
aF1.0190370082855225
aF1.0958070755004883
aF0.9390268325805664
aF1.3555989265441895
aF1.0900418758392334
aF1.1542398929595947
aF1.284546136856079
aF0.974045991897583
aF1.3222219944000244
aF1.0604488849639893
aF1.3604950904846191
aF1.3632090091705322
aF1.2516841888427734
aF1.3245129585266113
aF1.2288119792938232
aF2.593148946762085
aF0.7300839424133301
aF1.8567008972167969
aF1.209324836730957
aF1.300847053527832
aF0.9201359748840332
aF0.7750241756439209
aF1.2134220600128174
aF0.9883949756622314
aF1.7081711292266846
asg7
(lp17
F3.2355950050071427
aF2.5041616706897014
aF2.3966053354628136
aF2.026515141517371
aF1.396324279672168
aF1.6265690822976604
aF2.768072702325828
aF1.4194480111939676
aF1.9471071123012247
aF1.5127691805646084
aF2.7195286587130867
aF1.1982645585461766
aF1.7659413983294576
aF1.4005705410252756
aF2.0292935479166356
aF2.455765730244039
aF1.7541403429688767
aF1.2315060501438508
aF1.590543907463059
aF1.1876012602542763
aF1.8786386880518786
aF1.5821197252250268
aF1.5679998578739756
aF2.2075115434353685
aF1.7411688601888542
aF1.6907008165492938
aF1.6989259576128328
aF2.9669323297725603
aF1.5632361125503569
aF1.784813380344046
aF2.9987469356738496
aF2.372602817101864
aF3.2288004605832414
aF2.2772908491648303
aF0.876438966437621
aF1.307165169067079
aF1.749895432215431
aF1.4020805947368176
aF2.5981129294618723
aF2.099962372354053
aF1.5456377373633996
aF4.185001723683533
aF1.3626731768742826
aF2.0279336447507794
aF1.716393393542202
aF2.1894230677526645
aF1.7498655577536701
aF1.9042682298110403
aF3.0255011788470374
aF1.9933599704022031
aF1.2652988439765844
aF1.4234037470184588
aF1.2908667657937432
aF3.077022095852061
aF1.403686376656795
aF1.3515261225626973
aF2.7708723802507453
aF1.3028222176065738
aF3.860267297047757
aF2.108460876500083
aF1.047748801142851
aF1.5319233907830918
aF1.1445528483492582
aF2.6569729727845326
aF1.6401807341465604
aF3.3684708606548357
aF2.386080186646531
aF1.6062748775009
aF3.191577341476982
aF1.9727210104758743
aF2.4772463514118845
aF1.2119462403384043
aF2.2519863261247157
aF1.6746137137654564
aF1.819808420483373
aF1.5626127513848722
aF1.493699083757943
aF2.4672239166385213
aF1.4624058301008929
aF2.0410493853685847
aF2.008865649638152
aF2.0491706249280806
aF3.310135244903268
aF2.1912897687057757
aF1.9337119072569564
aF3.429589002970841
aF3.381122812401851
aF2.939526471600493
aF1.414684181543072
aF2.9816142498688705
aF3.0673325035956807
aF1.2904425118837584
aF3.454849723573731
aF1.3864288771560076
aF1.072743444207998
aF1.8139292995860685
aF1.2428759301826813
aF1.980946219786027
aF1.9086337870756986
aF1.6154226312869078
asg9
(lp18
I43
aI25
aI25
aI15
aI22
aI21
aI20
aI19
aI31
aI32
aI28
aI23
aI30
aI25
aI21
aI30
aI50
aI15
aI21
aI21
aI15
aI18
aI18
aI18
aI32
aI23
aI21
aI31
aI16
aI25
aI21
aI22
aI19
aI22
aI16
aI29
aI25
aI20
aI41
aI28
aI28
aI16
aI11
aI16
aI24
aI30
aI27
aI23
aI21
aI27
aI13
aI14
aI19
aI28
aI12
aI18
aI43
aI16
aI49
aI12
aI25
aI16
aI19
aI47
aI21
aI17
aI18
aI18
aI21
aI14
aI27
aI23
aI14
aI27
aI16
aI17
aI19
aI17
aI25
aI18
aI20
aI23
aI18
aI22
aI20
aI27
aI25
aI23
aI23
aI22
aI49
aI12
aI33
aI23
aI20
aI16
aI14
aI23
aI19
aI34
asg11
(lp19
I42
aI24
aI24
aI14
aI21
aI20
aI19
aI18
aI30
aI31
aI27
aI22
aI29
aI24
aI20
aI29
aI49
aI14
aI20
aI20
aI14
aI17
aI17
aI17
aI31
aI22
aI20
aI30
aI15
aI24
aI20
aI21
aI18
aI21
aI15
aI28
aI24
aI19
aI40
aI27
aI27
aI15
aI10
aI15
aI23
aI29
aI26
aI22
aI20
aI26
aI12
aI13
aI18
aI27
aI11
aI17
aI42
aI15
aI48
aI11
aI24
aI15
aI18
aI46
aI20
aI16
aI17
aI17
aI20
aI13
aI26
aI22
aI13
aI26
aI15
aI16
aI18
aI16
aI24
aI17
aI19
aI22
aI17
aI21
aI19
aI26
aI24
aI22
aI22
aI21
aI48
aI11
aI32
aI22
aI19
aI15
aI13
aI22
aI18
aI33
assS'NN     '
p20
(dp21
g3
(lp22
I01
aI01
aI01
aI01
aI01
aI01
aI01
aI01
aI00
aI01
aI00
aI01
aI01
aI01
aI01
aI01
aI01
aI01
aI01
aI01
aI01
aI01
aI01
aI01
aI01
aI01
aI01
aI01
aI01
aI01
aI01
aI01
aI01
aI00
aI01
aI01
aI01
aI01
aI01
aI01
aI01
aI01
aI01
aI01
aI01
aI01
aI01
aI01
aI01
aI01
aI01
aI01
aI01
aI01
aI01
aI00
aI01
aI01
aI01
aI01
aI01
aI01
aI01
aI01
aI01
aI01
aI01
aI01
aI01
aI01
aI01
aI01
aI01
aI01
aI01
aI01
aI01
aI01
aI01
aI01
aI01
aI01
aI01
aI01
aI01
aI01
aI01
aI01
aI01
aI01
aI01
aI01
aI01
aI01
aI01
aI01
aI01
aI00
aI01
aI01
asg5
(lp23
F0.33052897453308105
aF0.24756312370300293
aF0.10320186614990234
aF0.20058798789978027
aF0.332111120223999
aF0.32242798805236816
aF0.4748499393463135
aF0.1602950096130371
aF0.347775936126709
aF0.13132214546203613
aF0.3039100170135498
aF0.36095190048217773
aF0.36611008644104004
aF0.23693490028381348
aF0.31061387062072754
aF0.3034389019012451
aF0.143402099609375
aF0.4726259708404541
aF0.09981894493103027
aF0.4644761085510254
aF0.29832005500793457
aF0.9005298614501953
aF0.675285816192627
aF0.3550240993499756
aF0.18593192100524902
aF0.3648080825805664
aF0.39713621139526367
aF0.20815396308898926
aF0.13077878952026367
aF0.40382814407348633
aF0.2070760726928711
aF0.41404008865356445
aF0.5890669822692871
aF0.4680819511413574
aF0.4742109775543213
aF0.4182438850402832
aF0.22586297988891602
aF0.2902698516845703
aF0.815155029296875
aF0.21683120727539062
aF0.3140389919281006
aF0.5009469985961914
aF0.18467211723327637
aF0.38158702850341797
aF0.32723498344421387
aF0.1503159999847412
aF0.3746650218963623
aF0.4414489269256592
aF0.19353389739990234
aF0.243973970413208
aF0.5329301357269287
aF0.2715120315551758
aF0.3947129249572754
aF0.23885297775268555
aF0.3714921474456787
aF0.5780439376831055
aF0.10665607452392578
aF0.3528439998626709
aF0.6629228591918945
aF0.5342278480529785
aF0.15800809860229492
aF0.4435441493988037
aF0.4124569892883301
aF0.28698301315307617
aF0.49857187271118164
aF0.2545809745788574
aF0.36281609535217285
aF0.3819608688354492
aF0.3624110221862793
aF0.22010183334350586
aF0.23620295524597168
aF0.27660083770751953
aF0.6744959354400635
aF0.20771098136901855
aF0.2403559684753418
aF0.2980790138244629
aF0.33647894859313965
aF0.2138371467590332
aF0.25727200508117676
aF0.31647300720214844
aF0.09586787223815918
aF0.1008460521697998
aF0.40950489044189453
aF0.21236300468444824
aF0.2784388065338135
aF0.2980818748474121
aF0.09542393684387207
aF0.3588740825653076
aF0.09949612617492676
aF0.10453414916992188
aF0.30716800689697266
aF0.10110712051391602
aF0.4657759666442871
aF0.3160240650177002
aF0.14344096183776855
aF0.3439970016479492
aF0.1914370059967041
aF0.4451620578765869
aF0.23983097076416016
aF0.136793851852417
asg7
(lp24
F1.1206660270147968
aF2.035214150144176
aF0.9516425081033367
aF1.7140288122066305
aF1.3692949157132657
aF1.074212471594572
aF2.226348745916658
aF2.7423498489113434
aF2.0499082659574506
aF1.715906583605804
aF2.2218656859202066
aF1.0455575869503266
aF1.6173975463977175
aF1.427083045560505
aF1.1570826164356909
aF1.4119295260197366
aF2.215846992692077
aF1.3191860097794794
aF2.474502823181156
aF0.9919668628982828
aF1.5080857606981186
aF1.246003060328422
aF1.0335000573968018
aF1.9973690000146513
aF1.11732251605552
aF1.5314291387811505
aF0.5467502331126582
aF1.3840541724276105
aF1.7550775923720345
aF1.6493102713275942
aF1.206802492030342
aF1.3431044723130476
aF3.1891791577082693
aF1.8793055517781596
aF0.9863984210874372
aF1.636934543645717
aF1.0532619065467401
aF0.8561239213831653
aF1.4883657159425976
aF0.8859666604313249
aF1.3419918411748284
aF3.1135555121012612
aF1.0427182627086804
aF0.8861147103220904
aF1.597324148268688
aF1.2958723914522432
aF1.8977003023863386
aF1.156076465653996
aF1.106536611403763
aF1.3657564110001583
aF1.281862630745683
aF1.371920442295521
aF0.7748869280508476
aF1.0973558286626517
aF0.860321674496423
aF0.9333767213429786
aF1.639694062112005
aF1.6008795344922981
aF1.7248409961591737
aF1.457667199949996
aF1.5673678143236165
aF1.143315812377773
aF1.1475817813726157
aF1.3433748155851777
aF1.8446646008519858
aF1.3361377336076583
aF1.165325802042153
aF1.5259530588435481
aF1.25145484213738
aF0.9292089811416141
aF0.5224901388688235
aF0.9032743993918534
aF1.6921618454683713
aF1.3098238227069798
aF1.3251211667446607
aF1.6323960771664254
aF1.6928703740638518
aF1.7736669552404287
aF1.4610092109612314
aF1.1238598496050272
aF3.008134514181654
aF3.1145072690405025
aF1.4914008483148404
aF2.094490743269318
aF1.422640830556549
aF1.7802533056656922
aF3.18198700036665
aF1.2483477664609737
aF3.010447586888203
aF3.072427503856794
aF1.5072991699840594
aF2.9401217276155673
aF1.3029529716676627
aF0.8530944682660058
aF2.603077857145479
aF1.2148931016131277
aF0.7846983730920891
aF1.6087476891298862
aF1.2377116373010204
aF1.36790092141389
asg9
(lp25
I14
aI12
aI5
aI10
aI9
aI14
aI23
aI8
aI14
aI7
aI14
aI15
aI17
aI10
aI14
aI8
aI7
aI20
aI5
aI17
aI12
aI21
aI17
aI16
aI8
aI15
aI16
aI10
aI7
aI17
aI9
aI16
aI13
aI19
aI20
aI17
aI10
aI14
aI36
aI10
aI14
aI21
aI9
aI16
aI15
aI7
aI16
aI17
aI8
aI10
aI24
aI12
aI9
aI10
aI17
aI22
aI5
aI16
aI18
aI24
aI7
aI17
aI17
aI11
aI13
aI11
aI9
aI16
aI18
aI10
aI10
aI13
aI31
aI9
aI11
aI13
aI13
aI10
aI11
aI13
aI5
aI5
aI19
aI9
aI14
aI14
aI5
aI16
aI5
aI5
aI14
aI5
aI15
aI15
aI6
aI16
aI9
aI21
aI11
aI6
asg11
(lp26
I13
aI11
aI4
aI9
aI8
aI13
aI22
aI7
aI13
aI6
aI13
aI14
aI16
aI9
aI13
aI7
aI6
aI19
aI4
aI16
aI11
aI20
aI16
aI15
aI7
aI14
aI15
aI9
aI6
aI16
aI8
aI15
aI12
aI18
aI19
aI16
aI9
aI13
aI35
aI9
aI13
aI20
aI8
aI15
aI14
aI6
aI15
aI16
aI7
aI9
aI23
aI11
aI8
aI9
aI16
aI21
aI4
aI15
aI17
aI23
aI6
aI16
aI16
aI10
aI12
aI10
aI8
aI15
aI17
aI9
aI9
aI12
aI30
aI8
aI10
aI12
aI12
aI9
aI10
aI12
aI4
aI4
aI18
aI8
aI13
aI13
aI4
aI15
aI4
aI4
aI13
aI4
aI14
aI14
aI5
aI15
aI8
aI20
aI10
aI5
assS'STD    '
p27
(dp28
g3
(lp29
I01
aI01
aI01
aI01
aI01
aI01
aI01
aI01
aI00
aI00
aI00
aI01
aI01
aI01
aI01
aI00
aI00
aI01
aI01
aI01
aI01
aI00
aI01
aI01
aI01
aI01
aI01
aI00
aI00
aI01
aI01
aI00
aI00
aI01
aI01
aI01
aI01
aI01
aI01
aI01
aI01
aI00
aI01
aI01
aI01
aI00
aI01
aI01
aI01
aI01
aI00
aI01
aI01
aI01
aI01
aI01
aI01
aI01
aI00
aI01
aI01
aI00
aI01
aI01
aI01
aI01
aI00
aI01
aI01
aI01
aI01
aI01
aI01
aI01
aI01
aI00
aI01
aI01
aI01
aI00
aI01
aI00
aI01
aI01
aI01
aI01
aI01
aI00
aI01
aI01
aI00
aI01
aI01
aI01
aI01
aI01
aI01
aI01
aI01
aI01
asg5
(lp30
F0.733618974685669
aF0.24128389358520508
aF0.6092560291290283
aF0.4486551284790039
aF0.551753044128418
aF0.22414422035217285
aF0.5893998146057129
aF0.42780518531799316
aF0.819404125213623
aF0.4524059295654297
aF0.3330199718475342
aF0.9475569725036621
aF0.17417502403259277
aF0.6175010204315186
aF1.0183770656585693
aF0.619225025177002
aF0.791208028793335
aF0.41013002395629883
aF0.7285192012786865
aF0.8894498348236084
aF0.7423670291900635
aF0.410595178604126
aF0.6958611011505127
aF0.3595907688140869
aF0.8534719944000244
aF0.9213488101959229
aF0.22242999076843262
aF0.5760819911956787
aF0.5508201122283936
aF0.3571970462799072
aF0.4208199977874756
aF0.6518421173095703
aF0.92197585105896
aF0.36804819107055664
aF0.6981298923492432
aF0.9408540725708008
aF0.40654897689819336
aF0.3333570957183838
aF0.9808878898620605
aF0.399716854095459
aF0.5613830089569092
aF0.40574097633361816
aF0.16459918022155762
aF0.7670049667358398
aF0.5549659729003906
aF0.3260002136230469
aF0.35936713218688965
aF0.2272019386291504
aF0.5969681739807129
aF0.32791996002197266
aF0.4582850933074951
aF0.5442190170288086
aF1.0148789882659912
aF0.4523279666900635
aF0.5570249557495117
aF0.12807798385620117
aF0.4620189666748047
aF0.6001849174499512
aF0.7532181739807129
aF0.8885409832000732
aF0.4506199359893799
aF0.3807508945465088
aF0.3807260990142822
aF0.4171609878540039
aF0.9205381870269775
aF0.4561278820037842
aF0.7127940654754639
aF0.22211503982543945
aF0.585425853729248
aF0.18851804733276367
aF0.5996148586273193
aF0.2240428924560547
aF0.5772678852081299
aF0.39391303062438965
aF0.6514170169830322
aF0.294327974319458
aF0.530048131942749
aF0.683326005935669
aF0.3907041549682617
aF0.40624094009399414
aF0.21700096130371094
aF0.9514179229736328
aF0.6822700500488281
aF0.7176108360290527
aF0.5974380970001221
aF0.3687710762023926
aF0.8288650512695312
aF0.5507299900054932
aF0.5321218967437744
aF0.8296911716461182
aF0.5049779415130615
aF0.7613780498504639
aF0.41092896461486816
aF0.5493190288543701
aF0.19373202323913574
aF0.3984639644622803
aF0.4076979160308838
aF0.524346113204956
aF0.3752419948577881
aF0.5035271644592285
asg7
(lp31
F1.2435134720248366
aF2.101456838184771
aF1.842208544923538
aF1.5755977213120702
aF1.3908759997764149
aF1.0781284862973954
aF2.2523284095798646
aF0.8165783924273241
aF2.0276434452100953
aF1.5409246991567318
aF1.6253828897366307
aF1.0434329224062129
aF1.4819229276609243
aF1.1762568794245676
aF1.0713218620219995
aF1.6922466340987627
aF1.9259495299998368
aF1.4077528547420501
aF1.7013268747392876
aF1.0287719586229884
aF1.5659872602679947
aF1.9376508819146152
aF1.0315155808756187
aF2.020149266204
aF1.2335789182408423
aF1.3181207632354615
aF0.6194239449525065
aF1.1032201844084593
aF1.5781176296508532
aF1.5282417431278554
aF1.2041830302463135
aF2.0908309378533567
aF3.057448533748133
aF1.9430192842237433
aF1.0207409588814935
aF1.400213436392537
aF1.0473894530328907
aF0.9686802716235877
aF1.4884115626450032
aF1.5281381364269626
aF1.1053987715601672
aF3.589038518649499
aF1.200258789368454
aF1.1119683204443451
aF1.5900796991817019
aF2.0135865427074604
aF1.4966428972042178
aF1.3735919104281589
aF1.3121683200314274
aF1.4873700460019958
aF1.8251685600087015
aF1.431065685914853
aF0.8008115715610832
aF1.128447273525021
aF0.8901026879959019
aF1.6839457988667077
aF1.2223058498730899
aF0.9128047418454002
aF2.0636491996497286
aF1.4357121137338282
aF1.5336836375158147
aF1.3857861057137106
aF1.144570807589299
aF1.456892238241508
aF1.879991439363097
aF1.3326128206187524
aF1.809657939019035
aF1.48231122812361
aF1.202314831439495
aF1.1619695794618874
aF1.813440993240768
aF2.290560018880876
aF1.6707140447194644
aF1.5181764065066454
aF0.9018940132111943
aF1.937634700765269
aF1.7080152313912649
aF1.664547100052635
aF1.5286605865921934
aF1.7498966426258602
aF1.334780411121633
aF2.2144105740563864
aF1.5635710672951528
aF2.013315995170754
aF2.0792732207127527
aF1.8330331690341506
aF1.9730655356407765
aF1.5954424269957257
aF1.3965852915813572
aF1.6045087018218938
aF1.9567510853080021
aF0.9411240352581788
aF1.6126632572835558
aF1.4268812027890934
aF2.2907618007588426
aF1.9838179683796917
aF0.7985633311304591
aF1.6798270398018487
aF1.2384088523651229
aF1.4871564304275688
asg9
(lp32
I27
aI12
aI28
aI22
aI24
aI11
aI29
aI22
aI27
aI17
aI12
aI34
aI9
aI28
aI43
aI16
aI21
aI11
aI34
aI24
aI27
aI11
aI19
aI18
aI36
aI40
aI11
aI28
aI23
aI18
aI20
aI20
aI14
aI17
aI31
aI34
aI20
aI18
aI44
aI18
aI24
aI20
aI9
aI37
aI26
aI13
aI18
aI10
aI29
aI15
aI14
aI28
aI27
aI19
aI28
aI7
aI22
aI30
aI20
aI40
aI22
aI14
aI15
aI18
aI26
aI23
aI21
aI10
aI29
aI10
aI25
aI11
aI28
aI18
aI24
aI14
aI20
aI33
aI18
aI16
aI11
aI35
aI34
aI30
aI23
aI19
aI35
aI24
aI24
aI36
aI20
aI36
aI18
aI25
aI10
aI19
aI20
aI29
aI19
aI25
asg11
(lp33
I26
aI11
aI27
aI21
aI23
aI10
aI28
aI21
aI26
aI16
aI11
aI33
aI8
aI27
aI42
aI15
aI20
aI10
aI33
aI23
aI26
aI10
aI18
aI17
aI35
aI39
aI10
aI27
aI22
aI17
aI19
aI19
aI13
aI16
aI30
aI33
aI19
aI17
aI43
aI17
aI23
aI19
aI8
aI36
aI25
aI12
aI17
aI9
aI28
aI14
aI13
aI27
aI26
aI18
aI27
aI6
aI21
aI29
aI19
aI39
aI21
aI13
aI14
aI17
aI25
aI22
aI20
aI9
aI28
aI9
aI24
aI10
aI27
aI17
aI23
aI13
aI19
aI32
aI17
aI15
aI10
aI34
aI33
aI29
aI22
aI18
aI34
aI23
aI23
aI35
aI19
aI35
aI17
aI24
aI9
aI18
aI19
aI28
aI18
aI24
ass.