(dp0
S'BGMR    '
p1
(dp2
S'successes'
p3
(lp4
I01
aI01
aI01
aI01
aI01
aI01
aI01
aI01
aI01
aI01
aI01
aI01
aI01
aI01
aI01
aI01
aI01
aI01
aI01
aI01
aI01
aI01
aI01
aI01
aI00
aI01
aI01
aI01
aI01
aI01
aI01
aI01
aI01
aI01
aI01
aI01
aI01
aI01
aI01
aI01
aI01
aI01
aI01
aI01
aI01
aI01
aI01
aI01
aI01
aI01
aI01
aI01
aI01
aI01
aI01
aI01
aI01
aI01
aI01
aI01
aI01
aI01
aI01
aI01
aI01
aI01
aI01
aI01
aI01
aI01
aI01
aI01
aI01
aI01
aI01
aI01
aI01
aI01
aI01
aI01
aI01
aI01
aI01
aI01
aI01
aI01
aI00
aI01
aI01
aI01
aI01
aI01
aI01
aI01
aI01
aI00
aI01
aI01
aI01
aI01
asS'comp_times'
p5
(lp6
F0.21797800064086914
aF0.21822190284729004
aF0.1992359161376953
aF0.23889899253845215
aF0.5949108600616455
aF0.10204601287841797
aF0.2188708782196045
aF0.10381507873535156
aF0.2786529064178467
aF0.21625185012817383
aF0.3742518424987793
aF0.3689889907836914
aF0.2358999252319336
aF0.21798205375671387
aF0.30800485610961914
aF0.23144316673278809
aF0.7864589691162109
aF0.29472994804382324
aF0.26819300651550293
aF0.2536659240722656
aF0.4789249897003174
aF0.3296170234680176
aF0.23256802558898926
aF0.26738500595092773
aF0.2712838649749756
aF0.20469903945922852
aF0.6965689659118652
aF0.23171591758728027
aF0.35307908058166504
aF0.2564880847930908
aF0.22875094413757324
aF0.24781489372253418
aF0.3012559413909912
aF0.8789858818054199
aF0.2416391372680664
aF0.27066493034362793
aF0.5739500522613525
aF0.15943217277526855
aF0.42410707473754883
aF0.2423250675201416
aF0.21180987358093262
aF0.2400219440460205
aF0.28073620796203613
aF0.3385050296783447
aF0.640031099319458
aF0.35486483573913574
aF0.2886018753051758
aF0.38506507873535156
aF0.20342397689819336
aF0.36736607551574707
aF0.32161498069763184
aF0.5202391147613525
aF0.3351860046386719
aF0.6028320789337158
aF0.23537206649780273
aF0.3836531639099121
aF0.35994410514831543
aF0.5440590381622314
aF0.34714698791503906
aF0.30915403366088867
aF0.1582939624786377
aF0.3353891372680664
aF0.2983839511871338
aF0.214400053024292
aF0.4129660129547119
aF0.3642261028289795
aF0.25505900382995605
aF0.22464418411254883
aF0.5759069919586182
aF0.2508540153503418
aF0.30271005630493164
aF0.23052406311035156
aF0.4165968894958496
aF0.29847097396850586
aF0.21374011039733887
aF0.25913095474243164
aF0.3043100833892822
aF0.22913599014282227
aF0.34638190269470215
aF0.3049499988555908
aF0.21759390830993652
aF0.27129578590393066
aF0.2863898277282715
aF0.23761296272277832
aF0.18721699714660645
aF0.2119128704071045
aF0.27526402473449707
aF0.4773979187011719
aF0.24151110649108887
aF0.29889392852783203
aF0.2434380054473877
aF0.13376402854919434
aF0.5232329368591309
aF0.513340950012207
aF0.5120828151702881
aF0.27367091178894043
aF0.4567451477050781
aF0.4119150638580322
aF0.34000611305236816
aF0.29656505584716797
asS'costs'
p7
(lp8
F1.170465430416474
aF0.9648239457065728
aF1.5266468140642944
aF1.5770589659969334
aF1.2816564907374228
aF1.5898309695267945
aF0.9399665268761719
aF1.4951610608165167
aF1.0077503502631184
aF1.1590825091349732
aF1.5733512655488562
aF1.4996422785739092
aF2.0307286302267316
aF0.7794238974640684
aF1.4804762300271108
aF1.027348825578558
aF1.2784606431527825
aF1.249433009621768
aF1.1194233862559653
aF1.642903961593914
aF1.4708334681405346
aF1.162446662428989
aF1.27734412822195
aF1.412618531052376
aF1.1498431074647133
aF1.96757264864624
aF1.628061150749765
aF1.5090480535200534
aF1.5536680892197308
aF1.2830483994703412
aF1.3480764061569517
aF0.8675982721504983
aF1.3115066057910185
aF1.6109378512093038
aF1.084824320650644
aF1.0144622460533885
aF0.6296219110005493
aF1.6099178506669225
aF1.9616780325428078
aF1.1928249811958265
aF0.8201221924824096
aF2.421672851827415
aF1.211686323688658
aF1.105894025687911
aF1.8886835439603928
aF1.6846254944373245
aF1.7656152217702556
aF1.0818181839913603
aF1.055443353245622
aF1.0823848752307663
aF1.5697165508273798
aF1.608353439806833
aF1.424447656667915
aF1.5612733934776866
aF2.2951023759929154
aF0.9105067537140465
aF1.2386667771786168
aF1.4565753727899
aF0.7445123740120506
aF0.8923005630248185
aF1.717623949651849
aF0.9278919548019976
aF1.322727598965573
aF1.2999949983905288
aF1.353772826179647
aF1.258697471030846
aF1.7465064237005217
aF1.555572019899575
aF1.537220673162893
aF1.1673928663835744
aF1.4344767943721968
aF1.2849369214028965
aF0.6672654523917938
aF1.5722630049786483
aF0.9075797792731238
aF1.8256500518331913
aF1.4192784634757014
aF1.31198490211053
aF1.9910971560648225
aF1.368063797778045
aF1.1128443305692144
aF0.9168790604898114
aF1.3462147544253127
aF1.3256295452180429
aF1.0524719617932479
aF1.2429536867251634
aF0.8512646650568917
aF1.1993558700203046
aF0.5873941853164285
aF1.7148694903349981
aF1.0351204762241573
aF1.6334891951421449
aF1.444064117263477
aF1.0978037111649233
aF1.2550789183145605
aF1.5622718474211985
aF1.2090892137060054
aF1.1805955519084232
aF1.3098497854183793
aF1.7866248104961644
asS'func_evals'
p9
(lp10
I9
aI10
aI9
aI10
aI23
aI5
aI9
aI5
aI12
aI10
aI17
aI16
aI11
aI10
aI12
aI10
aI28
aI9
aI10
aI10
aI18
aI13
aI9
aI10
aI10
aI9
aI14
aI10
aI15
aI10
aI10
aI10
aI12
aI16
aI9
aI11
aI20
aI6
aI17
aI9
aI9
aI9
aI10
aI9
aI13
aI9
aI12
aI14
aI8
aI16
aI8
aI12
aI14
aI13
aI9
aI10
aI16
aI20
aI14
aI13
aI7
aI10
aI11
aI9
aI19
aI15
aI10
aI11
aI26
aI10
aI13
aI9
aI15
aI11
aI9
aI12
aI11
aI10
aI12
aI11
aI9
aI11
aI13
aI10
aI9
aI10
aI10
aI21
aI9
aI13
aI9
aI5
aI20
aI22
aI22
aI9
aI20
aI16
aI13
aI12
asS'qp_solves'
p11
(lp12
I8
aI9
aI8
aI9
aI22
aI4
aI8
aI4
aI11
aI9
aI16
aI15
aI10
aI9
aI11
aI9
aI27
aI8
aI9
aI9
aI17
aI12
aI8
aI9
aI9
aI8
aI13
aI9
aI14
aI9
aI9
aI9
aI11
aI15
aI8
aI10
aI19
aI5
aI16
aI8
aI8
aI8
aI9
aI8
aI12
aI8
aI11
aI13
aI7
aI15
aI7
aI11
aI13
aI12
aI8
aI9
aI15
aI19
aI13
aI12
aI6
aI9
aI10
aI8
aI18
aI14
aI9
aI10
aI25
aI9
aI12
aI8
aI14
aI10
aI8
aI11
aI10
aI9
aI11
aI10
aI8
aI10
aI12
aI9
aI8
aI9
aI9
aI20
aI8
aI12
aI8
aI4
aI19
aI21
aI21
aI8
aI19
aI15
aI12
aI11
assS'GPY    '
p13
(dp14
g3
(lp15
I01
aI01
aI01
aI01
aI01
aI01
aI01
aI01
aI01
aI01
aI01
aI01
aI01
aI01
aI01
aI01
aI01
aI01
aI01
aI01
aI01
aI01
aI01
aI01
aI01
aI01
aI01
aI00
aI01
aI01
aI01
aI01
aI01
aI00
aI01
aI00
aI01
aI01
aI01
aI01
aI01
aI01
aI01
aI01
aI01
aI01
aI01
aI01
aI01
aI01
aI01
aI01
aI01
aI01
aI01
aI01
aI01
aI01
aI01
aI01
aI01
aI01
aI01
aI01
aI01
aI01
aI01
aI01
aI01
aI01
aI01
aI01
aI01
aI01
aI01
aI01
aI01
aI01
aI01
aI01
aI01
aI01
aI01
aI01
aI01
aI01
aI01
aI01
aI01
aI01
aI01
aI01
aI01
aI01
aI01
aI00
aI01
aI01
aI01
aI01
asg5
(lp16
F0.2613348960876465
aF0.24807000160217285
aF0.3472259044647217
aF0.284527063369751
aF0.2579009532928467
aF0.2751729488372803
aF0.4413270950317383
aF0.24735784530639648
aF0.50016188621521
aF0.7060019969940186
aF0.2894730567932129
aF0.28376102447509766
aF0.22915196418762207
aF0.21548008918762207
aF0.44818782806396484
aF0.3596770763397217
aF0.31197094917297363
aF0.6609909534454346
aF0.3199288845062256
aF0.27074599266052246
aF0.3487229347229004
aF0.3948671817779541
aF0.3149750232696533
aF0.330610990524292
aF0.2258138656616211
aF0.49608898162841797
aF0.4258091449737549
aF0.3561570644378662
aF0.32000017166137695
aF0.33973097801208496
aF0.2680540084838867
aF0.17094206809997559
aF0.3751709461212158
aF0.7265479564666748
aF0.4288771152496338
aF0.390394926071167
aF0.4254271984100342
aF0.34885215759277344
aF0.417097806930542
aF0.32343006134033203
aF0.22991299629211426
aF0.31058788299560547
aF0.4800679683685303
aF0.37549614906311035
aF0.43849897384643555
aF0.326556921005249
aF0.3523530960083008
aF0.7677140235900879
aF0.3759901523590088
aF0.31275296211242676
aF0.49416589736938477
aF0.38604307174682617
aF0.36031198501586914
aF0.6450450420379639
aF0.4395561218261719
aF1.0635828971862793
aF0.2750980854034424
aF0.7681620121002197
aF0.873894214630127
aF0.3769338130950928
aF0.18652701377868652
aF0.329866886138916
aF0.6190989017486572
aF0.3233010768890381
aF0.4145967960357666
aF0.2983558177947998
aF0.2967832088470459
aF0.27435898780822754
aF0.3996090888977051
aF0.4048459529876709
aF0.325639009475708
aF0.2757840156555176
aF0.26057982444763184
aF0.7513751983642578
aF0.28801512718200684
aF0.2358560562133789
aF0.2439730167388916
aF0.2662651538848877
aF0.4428269863128662
aF0.3151969909667969
aF0.32644104957580566
aF0.29236793518066406
aF0.1729888916015625
aF0.3484921455383301
aF0.25539708137512207
aF0.24915003776550293
aF0.3051261901855469
aF0.334061861038208
aF0.2960820198059082
aF0.44971418380737305
aF0.21946191787719727
aF0.3458437919616699
aF0.30551719665527344
aF0.2755000591278076
aF0.30266499519348145
aF0.22677993774414062
aF0.43567514419555664
aF0.32414793968200684
aF0.36606693267822266
aF0.17061591148376465
asg7
(lp17
F1.2373574240908993
aF0.8373415236469193
aF1.4855525813047206
aF1.5945485708470237
aF1.353535215644655
aF1.4658568086316621
aF0.9365552949810867
aF1.3878529455893904
aF0.9909320246762892
aF1.0379717539229907
aF1.56981745043194
aF1.5645918773794374
aF2.0105198781789646
aF0.6909266546504063
aF1.6124997939685093
aF1.024838941571179
aF1.280172270023447
aF1.257600231158879
aF1.1769118048402603
aF1.5720975564468258
aF1.4708002580585406
aF1.185263018179266
aF1.2780354357744974
aF1.5117406343537139
aF1.2180006095715854
aF1.9667310868582724
aF1.530506200278228
aF1.6079186692111227
aF1.5516059914221862
aF1.2567526942613687
aF1.3451245182892988
aF0.8840658864869855
aF1.3163149517586665
aF1.6337692733321414
aF1.079369922317049
aF0.9839397584389264
aF0.6226041835193741
aF1.4720727037314711
aF1.9546895924577696
aF1.2117082543281805
aF0.7858691052020618
aF2.418760115106394
aF1.2074395882019933
aF1.106318464214323
aF1.7988524810893265
aF1.611023226954598
aF1.6877784868540062
aF1.0556673222656403
aF1.0789316588528048
aF1.111816992470719
aF1.5210323813892432
aF1.6303651596462072
aF1.4675382259261769
aF1.555679214931537
aF2.257836134335659
aF0.4807337260488883
aF1.263293694783464
aF1.5142835205609453
aF0.6556174308992457
aF0.8908534957927344
aF1.7933475478621121
aF0.9330109086818141
aF1.4566000061078266
aF1.3564338220979224
aF1.3934706736801985
aF1.2459132990429749
aF1.69361247499681
aF1.3591461016444888
aF1.538912721347883
aF1.205962465048477
aF1.4681843234071497
aF1.3898266448951795
aF0.6743346504503397
aF1.649808900183379
aF0.8711472795257786
aF1.744195627762511
aF1.4082746029581892
aF1.306768139382692
aF2.0605702881330696
aF1.2923830607088127
aF1.1155191586857154
aF0.9013333124269975
aF1.339996717038739
aF1.2885166408327464
aF0.979789112880154
aF1.244071944490064
aF0.8116060230921356
aF1.219591386186191
aF0.5082387788800299
aF1.6819017714961995
aF1.0900948368051604
aF1.573706794556946
aF1.5694404445783938
aF1.1412210108340934
aF1.2149955112168709
aF1.5448913597124885
aF1.2312081302030395
aF1.177696329949581
aF1.3202735411204312
aF1.803965315400531
asg9
(lp18
I9
aI8
aI13
aI10
aI8
aI10
aI16
aI9
aI19
aI29
aI10
aI10
aI8
aI7
aI16
aI13
aI11
aI16
aI11
aI9
aI6
aI14
aI10
aI11
aI7
aI21
aI8
aI13
aI11
aI11
aI9
aI5
aI14
aI19
aI15
aI14
aI15
aI11
aI14
aI10
aI7
aI11
aI17
aI9
aI8
aI11
aI11
aI16
aI14
aI11
aI11
aI13
aI13
aI15
aI15
aI24
aI10
aI17
aI28
aI14
aI6
aI12
aI14
aI12
aI15
aI10
aI10
aI10
aI15
aI15
aI12
aI9
aI8
aI27
aI10
aI8
aI7
aI9
aI16
aI9
aI12
aI10
aI5
aI12
aI8
aI9
aI9
aI12
aI9
aI17
aI7
aI12
aI10
aI10
aI10
aI6
aI18
aI11
aI13
aI5
asg11
(lp19
I8
aI7
aI12
aI9
aI7
aI9
aI15
aI8
aI18
aI28
aI9
aI9
aI7
aI6
aI15
aI12
aI10
aI15
aI10
aI8
aI5
aI13
aI9
aI10
aI6
aI20
aI7
aI12
aI10
aI10
aI8
aI4
aI13
aI18
aI14
aI13
aI14
aI10
aI13
aI9
aI6
aI10
aI16
aI8
aI7
aI10
aI10
aI15
aI13
aI10
aI10
aI12
aI12
aI14
aI14
aI23
aI9
aI16
aI27
aI13
aI5
aI11
aI13
aI11
aI14
aI9
aI9
aI9
aI14
aI14
aI11
aI8
aI7
aI26
aI9
aI7
aI6
aI8
aI15
aI8
aI11
aI9
aI4
aI11
aI7
aI8
aI8
aI11
aI8
aI16
aI6
aI11
aI9
aI9
aI9
aI5
aI17
aI10
aI12
aI4
assS'NN     '
p20
(dp21
g3
(lp22
I01
aI01
aI01
aI01
aI01
aI01
aI01
aI01
aI01
aI01
aI01
aI01
aI01
aI01
aI01
aI01
aI01
aI01
aI00
aI01
aI01
aI01
aI01
aI01
aI00
aI01
aI01
aI01
aI01
aI01
aI01
aI01
aI01
aI01
aI01
aI01
aI01
aI01
aI01
aI01
aI01
aI01
aI01
aI01
aI01
aI01
aI01
aI01
aI01
aI01
aI01
aI01
aI01
aI01
aI01
aI01
aI01
aI01
aI01
aI01
aI01
aI01
aI01
aI01
aI01
aI01
aI01
aI00
aI01
aI01
aI01
aI00
aI01
aI01
aI01
aI01
aI01
aI01
aI01
aI00
aI01
aI01
aI01
aI01
aI01
aI01
aI00
aI01
aI01
aI01
aI01
aI01
aI01
aI01
aI01
aI00
aI01
aI01
aI01
aI01
asg5
(lp23
F0.15601515769958496
aF0.5067059993743896
aF0.21084094047546387
aF0.2824289798736572
aF0.12152290344238281
aF0.17637991905212402
aF0.34984803199768066
aF0.1503441333770752
aF0.5835568904876709
aF0.2626199722290039
aF0.41008901596069336
aF0.4548649787902832
aF0.33525800704956055
aF0.3817169666290283
aF0.37873220443725586
aF0.32148218154907227
aF0.42423319816589355
aF0.30123209953308105
aF0.5562989711761475
aF0.3010749816894531
aF0.4357609748840332
aF0.40206003189086914
aF0.21158289909362793
aF0.3135039806365967
aF0.41411805152893066
aF0.33154988288879395
aF0.7019970417022705
aF0.3489990234375
aF0.13779211044311523
aF0.5221149921417236
aF0.25730299949645996
aF0.14582586288452148
aF0.3855171203613281
aF0.4127650260925293
aF0.2599310874938965
aF0.5157749652862549
aF0.16448402404785156
aF0.48034000396728516
aF0.20800185203552246
aF0.1462240219116211
aF0.16800999641418457
aF0.20350313186645508
aF0.5867440700531006
aF0.7099030017852783
aF0.8357470035552979
aF0.287020206451416
aF0.6009151935577393
aF0.7031140327453613
aF0.4511380195617676
aF0.16355609893798828
aF0.2950718402862549
aF1.0930259227752686
aF0.25412511825561523
aF0.10632586479187012
aF0.21509385108947754
aF0.6735818386077881
aF0.44990110397338867
aF0.7619719505310059
aF0.7822039127349854
aF0.9582221508026123
aF0.2024080753326416
aF0.22093987464904785
aF0.45021605491638184
aF0.34817981719970703
aF0.18549084663391113
aF0.44172215461730957
aF0.42751002311706543
aF0.4957261085510254
aF0.12163901329040527
aF0.17285799980163574
aF0.2299060821533203
aF0.16892194747924805
aF0.24668002128601074
aF0.40156006813049316
aF0.30779099464416504
aF0.1345350742340088
aF0.23344206809997559
aF0.09944510459899902
aF0.13893508911132812
aF0.5889391899108887
aF0.13807392120361328
aF0.18471813201904297
aF0.4405550956726074
aF0.3097989559173584
aF0.3343210220336914
aF0.17814087867736816
aF0.36498284339904785
aF0.2611219882965088
aF0.2792789936065674
aF0.11945915222167969
aF0.7426230907440186
aF0.37829089164733887
aF0.3320178985595703
aF0.2667670249938965
aF0.4378030300140381
aF0.20840716361999512
aF0.41902589797973633
aF0.13884520530700684
aF0.29939699172973633
aF0.17231416702270508
asg7
(lp24
F1.2931718461003594
aF0.8351310800668081
aF1.513644256045207
aF1.6091007896835445
aF2.7257648322881343
aF1.5266253635954214
aF1.0239456931243949
aF1.3793503319503675
aF1.0308182088839248
aF1.1300982832047672
aF1.5592401319525127
aF1.4294929292369543
aF1.970196137374209
aF0.6844875804040037
aF1.4608942628975752
aF1.0340227984189505
aF1.2800381850044011
aF1.237878513267496
aF1.1369227879688553
aF1.6205666987765144
aF1.4719398278667544
aF1.1381255512443114
aF1.4578137063057544
aF1.4134007046740231
aF1.1982966719153039
aF1.9593893214128806
aF1.7281525223676772
aF1.8524848324180714
aF3.0893947636048686
aF1.2342650388832324
aF1.3758338429126769
aF0.8688426025590572
aF1.3150148404847641
aF1.620897652307559
aF1.0902073105455499
aF0.9609629937559283
aF0.8379725152101304
aF1.440816524898682
aF2.1558373231499255
aF1.1800803541815061
aF0.896712361152955
aF2.381195343626692
aF1.2013873587955919
aF1.1158135261949458
aF1.7905447482528125
aF1.642381788603936
aF1.6990869376792317
aF1.2644073067146557
aF1.1111832532860322
aF1.2677672277073468
aF1.5266774156058094
aF1.59475198302628
aF1.779393213586685
aF2.4942153678246637
aF2.347128718188904
aF0.5954807228730558
aF1.2785672407791027
aF1.5705480367329003
aF0.7030100782495918
aF0.8944029641659681
aF1.851340391989382
aF0.925366751438689
aF1.3125749581590456
aF1.7091978531888279
aF1.7806940780078695
aF1.2744646874698722
aF1.70563411963137
aF1.2484157680029646
aF1.5414757681369178
aF1.4209560434489026
aF1.430868607972217
aF1.4561478189261983
aF0.6667270437127688
aF1.5619842680302365
aF0.8858336986640544
aF1.7497424349630415
aF1.4611446596194193
aF1.7999816256679475
aF3.029436767692118
aF1.3173955024826889
aF1.118397172517416
aF1.3787298754983794
aF1.4416719879072086
aF1.279377584046212
aF1.4433961327409146
aF1.2748930354022299
aF0.8004963581771878
aF1.2086738802217438
aF0.5902980825517029
aF1.6931263405631225
aF1.031034876157363
aF2.2386472208736516
aF1.6727551566551362
aF1.6158205460527666
aF1.4579211018674976
aF2.150787032725761
aF1.210058080959013
aF1.4102954058916717
aF1.5391984983497582
aF1.7643343230251198
asg9
(lp25
I7
aI22
aI9
aI12
aI6
aI9
aI15
aI7
aI27
aI12
aI17
aI20
aI16
aI17
aI15
aI14
aI19
aI8
aI24
aI13
aI9
aI16
aI9
aI13
aI19
aI16
aI16
aI14
aI7
aI21
aI11
aI6
aI16
aI15
aI10
aI22
aI8
aI15
aI10
aI6
aI8
aI8
aI25
aI20
aI28
aI12
aI13
aI16
aI20
aI8
aI13
aI25
aI12
aI5
aI9
aI17
aI22
aI13
aI20
aI25
aI10
aI10
aI10
aI16
aI9
aI21
aI19
aI21
aI5
aI8
aI11
aI7
aI10
aI16
aI13
aI6
aI10
aI5
aI7
aI23
aI6
aI9
aI20
aI13
aI14
aI9
aI14
aI12
aI12
aI5
aI30
aI13
aI15
aI13
aI20
aI9
aI19
aI7
aI13
aI8
asg11
(lp26
I6
aI21
aI8
aI11
aI5
aI8
aI14
aI6
aI26
aI11
aI16
aI19
aI15
aI16
aI14
aI13
aI18
aI7
aI23
aI12
aI8
aI15
aI8
aI12
aI18
aI15
aI15
aI13
aI6
aI20
aI10
aI5
aI15
aI14
aI9
aI21
aI7
aI14
aI9
aI5
aI7
aI7
aI24
aI19
aI27
aI11
aI12
aI15
aI19
aI7
aI12
aI24
aI11
aI4
aI8
aI16
aI21
aI12
aI19
aI24
aI9
aI9
aI9
aI15
aI8
aI20
aI18
aI20
aI4
aI7
aI10
aI6
aI9
aI15
aI12
aI5
aI9
aI4
aI6
aI22
aI5
aI8
aI19
aI12
aI13
aI8
aI13
aI11
aI11
aI4
aI29
aI12
aI14
aI12
aI19
aI8
aI18
aI6
aI12
aI7
assS'STD    '
p27
(dp28
g3
(lp29
I01
aI01
aI01
aI01
aI00
aI01
aI01
aI01
aI01
aI00
aI01
aI01
aI01
aI01
aI00
aI01
aI01
aI01
aI01
aI00
aI00
aI01
aI01
aI00
aI01
aI00
aI01
aI01
aI01
aI01
aI01
aI01
aI01
aI00
aI00
aI01
aI01
aI00
aI01
aI01
aI01
aI00
aI01
aI00
aI01
aI01
aI01
aI01
aI01
aI01
aI01
aI00
aI01
aI01
aI00
aI01
aI01
aI01
aI01
aI01
aI01
aI01
aI01
aI01
aI00
aI01
aI01
aI01
aI01
aI01
aI01
aI01
aI01
aI00
aI01
aI01
aI01
aI01
aI01
aI00
aI01
aI01
aI01
aI01
aI01
aI01
aI01
aI00
aI01
aI01
aI01
aI00
aI01
aI01
aI01
aI00
aI01
aI01
aI01
aI01
asg5
(lp30
F0.7582049369812012
aF0.6813740730285645
aF0.3695249557495117
aF0.49906420707702637
aF0.7192628383636475
aF0.5620830059051514
aF0.3143289089202881
aF0.5356988906860352
aF0.7179570198059082
aF0.4174039363861084
aF0.36475205421447754
aF0.3463480472564697
aF0.35868406295776367
aF0.5285768508911133
aF0.9122481346130371
aF0.4651939868927002
aF0.3643529415130615
aF0.95306396484375
aF0.5765669345855713
aF0.4596109390258789
aF1.2332549095153809
aF0.5409910678863525
aF0.19498014450073242
aF0.5290980339050293
aF0.19734692573547363
aF0.6868720054626465
aF0.5774519443511963
aF0.6020698547363281
aF0.6052818298339844
aF0.4492218494415283
aF0.4353189468383789
aF0.3307681083679199
aF0.4614739418029785
aF0.32974696159362793
aF1.7293400764465332
aF0.471127986907959
aF0.7671618461608887
aF0.33719897270202637
aF0.385983943939209
aF0.5341610908508301
aF0.21696782112121582
aF0.3487870693206787
aF0.666715145111084
aF0.2933390140533447
aF1.2248740196228027
aF0.5859251022338867
aF0.8365108966827393
aF0.5471291542053223
aF0.4819982051849365
aF0.36157703399658203
aF0.6373708248138428
aF0.6186630725860596
aF2.1932499408721924
aF0.6589169502258301
aF0.7667391300201416
aF0.4853668212890625
aF0.6568300724029541
aF0.8981661796569824
aF0.8733057975769043
aF1.0833678245544434
aF0.21050095558166504
aF0.23455500602722168
aF1.3975610733032227
aF0.3228621482849121
aF0.6066079139709473
aF0.2539830207824707
aF0.4987759590148926
aF0.5298399925231934
aF0.7212200164794922
aF0.5144040584564209
aF0.4361128807067871
aF0.4064650535583496
aF0.5885260105133057
aF0.5785079002380371
aF0.39994287490844727
aF0.2978029251098633
aF0.16674304008483887
aF0.8808789253234863
aF0.43146514892578125
aF0.5711479187011719
aF0.2132570743560791
aF0.4386310577392578
aF0.5059869289398193
aF0.4273989200592041
aF0.3979771137237549
aF0.5416250228881836
aF0.5109109878540039
aF0.4184398651123047
aF0.5024199485778809
aF0.4844388961791992
aF0.649528980255127
aF0.5228469371795654
aF0.5981700420379639
aF0.663917064666748
aF0.5012218952178955
aF0.3871579170227051
aF0.36281609535217285
aF0.43732309341430664
aF0.5144338607788086
aF0.3844001293182373
asg7
(lp31
F1.1904861949355616
aF0.8728312886414821
aF1.6206939561457065
aF1.6434264240244392
aF1.6482396680098088
aF1.4658882012751058
aF0.9814532276778849
aF1.3941860683197669
aF1.0003720763222377
aF1.132568409930001
aF1.5214231923099677
aF1.7248166883668772
aF2.05723049402914
aF0.700969720574166
aF3.3025717100562515
aF1.0230427215196138
aF1.3408538779161503
aF1.2528288126153306
aF1.1746504650762333
aF1.8974903197513713
aF1.8658824960343408
aF1.1644013387204417
aF1.6841742417459107
aF2.629587784737385
aF1.7962770594644002
aF2.2302553877070728
aF1.6896561947406825
aF1.5109924899127996
aF1.7687245457947915
aF1.3131939358498521
aF1.384383440218917
aF0.8922302309001874
aF1.3148999805968686
aF2.025561613426326
aF1.4551794310045885
aF1.1690883197175708
aF0.6229680683789659
aF2.0485641333539033
aF1.988048153701691
aF1.8335027227678113
aF0.8568620136418185
aF3.010164425308301
aF1.2164710229876186
aF1.2024151608808453
aF1.9925212826408871
aF1.6362675561613123
aF1.7279546471858123
aF1.11263297918761
aF1.19461614658761
aF1.1158029047920313
aF1.4967227278320865
aF2.1986357726325485
aF1.4692883963820182
aF1.5757295041203898
aF2.7490888393073902
aF1.1240552710322833
aF1.2523713325468295
aF1.4991042289428567
aF0.7407987990702053
aF0.9429708405816573
aF2.107040240229083
aF1.057908806097683
aF1.5013799852376313
aF1.6677191025611733
aF2.1442563672504416
aF1.5344477039693705
aF1.7410394430620248
aF1.447062981428894
aF1.5379731156930962
aF1.245227874466179
aF1.444364452727992
aF1.635386585834999
aF0.7438798104965058
aF2.4913996503405262
aF0.909943068688168
aF1.884592599770116
aF2.3176102645443444
aF1.31552486777652
aF2.227782476660602
aF2.5867977670424738
aF1.1857422344113684
aF0.9528864551555271
aF1.4917675318026655
aF1.2931021422814544
aF1.0764909396644053
aF1.2467450446088766
aF1.0090543406692236
aF1.6125408925801845
aF0.6374645469471092
aF1.7468481249808974
aF1.0035049038036588
aF1.9282383269103676
aF1.4892306986886779
aF1.1177094651971338
aF1.2902086874854282
aF1.7817249418881225
aF1.2652408606899115
aF1.1778839065297717
aF1.3292970811106921
aF1.794794299759349
asg9
(lp32
I35
aI33
aI19
aI24
aI23
aI28
aI15
aI27
aI33
aI20
aI17
aI15
aI18
aI26
aI33
aI21
aI19
aI25
aI29
aI20
aI29
aI25
aI9
aI20
aI10
aI32
aI23
aI18
aI29
aI20
aI21
aI18
aI23
aI13
aI42
aI22
aI32
aI13
aI17
aI21
aI11
aI17
aI31
aI16
aI21
aI13
aI17
aI24
aI22
aI18
aI29
aI14
aI66
aI27
aI18
aI16
aI32
aI19
aI21
aI31
aI12
aI11
aI29
aI17
aI26
aI13
aI23
aI26
aI34
aI24
aI21
aI20
aI29
aI22
aI19
aI16
aI9
aI41
aI14
aI22
aI11
aI22
aI24
aI20
aI22
aI28
aI26
aI17
aI22
aI22
aI31
aI21
aI24
aI30
aI21
aI13
aI17
aI19
aI24
aI19
asg11
(lp33
I34
aI32
aI18
aI23
aI22
aI27
aI14
aI26
aI32
aI19
aI16
aI14
aI17
aI25
aI32
aI20
aI18
aI24
aI28
aI19
aI28
aI24
aI8
aI19
aI9
aI31
aI22
aI17
aI28
aI19
aI20
aI17
aI22
aI12
aI41
aI21
aI31
aI12
aI16
aI20
aI10
aI16
aI30
aI15
aI20
aI12
aI16
aI23
aI21
aI17
aI28
aI13
aI65
aI26
aI17
aI15
aI31
aI18
aI20
aI30
aI11
aI10
aI28
aI16
aI25
aI12
aI22
aI25
aI33
aI23
aI20
aI19
aI28
aI21
aI18
aI15
aI8
aI40
aI13
aI21
aI10
aI21
aI23
aI19
aI21
aI27
aI25
aI16
aI21
aI21
aI30
aI20
aI23
aI29
aI20
aI12
aI16
aI18
aI23
aI18
ass.